(dp0
S'Y'
p1
(lp2
(lp3
(S'R'
p4
g4
g4
S'E3'
p5
I1
tp6
a(S'_'
p7
g7
g7
g7
I2
tp8
a(g7
g7
g7
g7
I3
tp9
a(g7
g7
g7
g7
I4
tp10
a(g7
g7
g7
g7
I1
tp11
a(g7
g7
g7
g7
I2
tp12
a(g7
g7
g7
g7
I3
tp13
a(g7
g7
g7
g7
I4
tp14
a(g7
g7
g7
g7
I1
tp15
a(g7
g7
g7
g7
I2
tp16
a(g7
g7
g7
g7
I3
tp17
a(g7
g7
g7
g7
I4
tp18
a(g7
g7
g7
g7
I1
tp19
a(g7
g7
g7
g7
I2
tp20
a(g7
g7
g7
g7
I3
tp21
a(g7
g7
g7
g7
I4
tp22
a(g7
g7
g7
S'F#3'
p23
I1
tp24
a(g7
g7
g7
g7
I2
tp25
a(g7
g7
g7
g7
I3
tp26
a(g7
g7
g7
g7
I4
tp27
a(g7
g7
g7
g7
I1
tp28
a(g7
g7
g7
g7
I2
tp29
a(g7
g7
g7
g7
I3
tp30
a(g7
g7
g7
g7
I4
tp31
a(g7
g7
g7
S'A3'
p32
I1
tp33
a(g7
g7
g7
g7
I2
tp34
a(g7
g7
g7
g7
I3
tp35
a(g7
g7
g7
g7
I4
tp36
a(g7
g7
g7
g7
I1
tp37
a(g7
g7
g7
g7
I2
tp38
a(g7
g7
g7
g7
I3
tp39
a(g7
g7
g7
g7
I4
tp40
a(g7
g7
g7
S'G#3'
p41
I1
tp42
a(g7
g7
g7
g7
I2
tp43
a(g7
g7
g7
g7
I3
tp44
a(g7
g7
g7
g7
I4
tp45
a(g7
g7
g7
g7
I1
tp46
a(g7
g7
g7
g7
I2
tp47
a(g7
g7
g7
g7
I3
tp48
a(g7
g7
g7
g7
I4
tp49
a(g7
g7
g7
S'F#3'
p50
I1
tp51
a(g7
g7
g7
g7
I2
tp52
a(g7
g7
g7
g7
I3
tp53
a(g7
g7
g7
g7
I4
tp54
a(g7
g7
g7
g7
I1
tp55
a(g7
g7
g7
g7
I2
tp56
a(g7
g7
g7
g7
I3
tp57
a(g7
g7
g7
g7
I4
tp58
a(S'B3'
p59
g7
g7
S'E3'
p60
I1
tp61
a(g7
g7
g7
g7
I2
tp62
a(g7
g7
g7
g7
I3
tp63
a(g7
g7
g7
g7
I4
tp64
a(g7
g7
g7
S'E-3'
p65
I1
tp66
a(g7
g7
g7
g7
I2
tp67
a(g7
g7
g7
S'C#3'
p68
I3
tp69
a(g7
g7
g7
g7
I4
tp70
a(g7
g7
g7
S'E-3'
p71
I1
tp72
a(g7
g7
g7
g7
I2
tp73
a(g7
g7
g7
g7
I3
tp74
a(g7
g7
g7
g7
I4
tp75
a(g7
g7
g7
S'B2'
p76
I1
tp77
a(g7
g7
g7
g7
I2
tp78
a(g7
g7
g7
g7
I3
tp79
a(g7
g7
g7
g7
I4
tp80
a(S'C#4'
p81
g7
g7
S'E3'
p82
I1
tp83
a(g7
g7
g7
g7
I2
tp84
a(g7
g7
g7
g7
I3
tp85
a(g7
g7
g7
g7
I4
tp86
a(g7
g7
g7
S'F#3'
p87
I1
tp88
a(g7
g7
g7
g7
I2
tp89
a(g7
g7
g7
g7
I3
tp90
a(g7
g7
g7
g7
I4
tp91
a(S'E4'
p92
g7
g7
S'G#3'
p93
I1
tp94
a(g7
g7
g7
g7
I2
tp95
a(g7
g7
g7
g7
I3
tp96
a(g7
g7
g7
g7
I4
tp97
a(g7
g7
g7
S'B-3'
p98
I1
tp99
a(g7
g7
g7
g7
I2
tp100
a(g7
g7
g7
g7
I3
tp101
a(g7
g7
g7
g7
I4
tp102
a(S'E-4'
p103
g7
g7
S'B3'
p104
I1
tp105
a(g7
g7
g7
g7
I2
tp106
a(g7
g7
g7
S'F#3'
p107
I3
tp108
a(g7
g7
g7
g7
I4
tp109
a(g7
g7
g7
S'B3'
p110
I1
tp111
a(g7
g7
g7
g7
I2
tp112
a(g7
g7
g7
g7
I3
tp113
a(g7
g7
g7
g7
I4
tp114
a(S'C#4'
p115
g7
g7
g7
I1
tp116
a(g7
g7
g7
g7
I2
tp117
a(g7
g7
g7
g7
I3
tp118
a(g7
g7
g7
g7
I4
tp119
a(g7
g7
g7
S'A3'
p120
I1
tp121
a(g7
g7
g7
g7
I2
tp122
a(g7
g7
g7
g7
I3
tp123
a(g7
g7
g7
g7
I4
tp124
a(S'B3'
p125
S'E4'
p126
g7
g7
I1
tp127
a(g7
g7
g7
g7
I2
tp128
a(g7
g7
g7
g7
I3
tp129
a(g7
g7
g7
g7
I4
tp130
a(g7
g7
g7
S'G#3'
p131
I1
tp132
a(g7
g7
g7
g7
I2
tp133
a(g7
g7
g7
S'F#3'
p134
I3
tp135
a(g7
g7
g7
g7
I4
tp136
a(g7
g7
g7
S'G#3'
p137
I1
tp138
a(g7
g7
g7
g7
I2
tp139
a(g7
g7
g7
g7
I3
tp140
a(g7
g7
g7
g7
I4
tp141
a(S'B3'
p142
g7
g7
g7
I1
tp143
a(g7
g7
g7
g7
I2
tp144
a(g7
g7
g7
g7
I3
tp145
a(g7
g7
g7
g7
I4
tp146
a(S'A3'
p147
S'F#4'
p148
g7
g7
I1
tp149
a(g7
g7
g7
g7
I2
tp150
a(g7
g7
g7
g7
I3
tp151
a(g7
g7
g7
g7
I4
tp152
a(S'B3'
p153
g7
g7
g7
I1
tp154
a(g7
g7
g7
g7
I2
tp155
a(g7
g7
g7
g7
I3
tp156
a(g7
g7
g7
g7
I4
tp157
a(S'C#4'
p158
S'A4'
p159
g7
S'F#3'
p160
I1
tp161
a(g7
g7
g7
g7
I2
tp162
a(g7
g7
g7
g7
I3
tp163
a(g7
g7
g7
g7
I4
tp164
a(S'E-4'
p165
g7
g7
g7
I1
tp166
a(g7
g7
g7
g7
I2
tp167
a(g7
g7
g7
g7
I3
tp168
a(g7
g7
g7
g7
I4
tp169
a(S'E4'
p170
S'G#4'
p171
g7
S'G#3'
p172
I1
tp173
a(g7
g7
g7
g7
I2
tp174
a(S'B3'
p175
g7
g7
g7
I3
tp176
a(g7
g7
g7
g7
I4
tp177
a(S'E4'
p178
g7
g7
g7
I1
tp179
a(g7
g7
g7
g7
I2
tp180
a(g7
g7
g7
g7
I3
tp181
a(g7
g7
g7
g7
I4
tp182
a(g7
S'F#4'
p183
g7
S'A3'
p184
I1
tp185
a(g7
g7
g7
g7
I2
tp186
a(g7
g7
g7
g7
I3
tp187
a(g7
g7
g7
g7
I4
tp188
a(S'E-4'
p189
g7
g7
S'B3'
p190
I1
tp191
a(g7
g7
g7
g7
I2
tp192
a(S'C#4'
p193
g7
g7
S'A3'
p194
I3
tp195
a(g7
g7
g7
g7
I4
tp196
a(S'B3'
p197
S'E4'
p198
S'B4'
p199
S'G#3'
p200
I1
tp201
a(g7
g7
g7
g7
I2
tp202
a(g7
g7
g7
g7
I3
tp203
a(g7
g7
g7
g7
I4
tp204
a(S'A3'
p205
g7
g7
S'F#3'
p206
I1
tp207
a(g7
g7
g7
g7
I2
tp208
a(g7
g7
g7
g7
I3
tp209
a(g7
g7
g7
g7
I4
tp210
a(S'G#3'
p211
g4
g7
S'E3'
p212
I1
tp213
a(g7
g7
g7
g7
I2
tp214
a(g7
g7
g7
g7
I3
tp215
a(g7
g7
g7
g7
I4
tp216
a(S'F#3'
p217
S'B3'
p218
g7
S'E-3'
p219
I1
tp220
a(g7
g7
g7
g7
I2
tp221
a(g7
g7
g7
g7
I3
tp222
a(g7
g7
g7
g7
I4
tp223
a(S'G#3'
p224
S'E4'
p225
S'C#5'
p226
S'C#3'
p227
I1
tp228
a(g7
g7
g7
g7
I2
tp229
a(g7
g7
g7
g7
I3
tp230
a(g7
g7
g7
g7
I4
tp231
a(g7
S'F#4'
p232
g7
g7
I1
tp233
a(g7
g7
g7
g7
I2
tp234
a(g7
g7
g7
g7
I3
tp235
a(g7
g7
g7
g7
I4
tp236
a(S'E3'
p237
S'G#4'
p238
S'E5'
p239
g7
I1
tp240
a(g7
g7
g7
g7
I2
tp241
a(g7
g7
g7
g7
I3
tp242
a(g7
g7
g7
g7
I4
tp243
a(g7
S'B-4'
p244
g7
g7
I1
tp245
a(g7
g7
g7
g7
I2
tp246
a(g7
g7
g7
g7
I3
tp247
a(g7
g7
g7
g7
I4
tp248
a(S'F#3'
p249
S'B4'
p250
S'E-5'
p251
S'B2'
p252
I1
tp253
a(g7
g7
g7
g7
I2
tp254
a(g7
S'F#4'
p255
g7
g7
I3
tp256
a(g7
g7
g7
g7
I4
tp257
a(g7
S'B4'
p258
g7
g7
I1
tp259
a(g7
g7
g7
g7
I2
tp260
a(g7
g7
g7
g7
I3
tp261
a(g7
g7
g7
g7
I4
tp262
a(g7
g7
S'C#5'
p263
S'F#2'
p264
I1
tp265
a(g7
g7
g7
g7
I2
tp266
a(g7
g7
g7
g7
I3
tp267
a(g7
g7
g7
g7
I4
tp268
a(g7
S'A4'
p269
g7
g7
I1
tp270
a(g7
g7
g7
g7
I2
tp271
a(g7
g7
g7
g7
I3
tp272
a(g7
g7
g7
g7
I4
tp273
a(g7
g7
S'B4'
p274
S'G#2'
p275
I1
tp276
a(g7
g7
g7
g7
I2
tp277
a(g7
g7
g7
g7
I3
tp278
a(g7
g7
g7
g7
I4
tp279
a(S'E-3'
p280
S'G#4'
p281
g7
g7
I1
tp282
a(g7
g7
g7
g7
I2
tp283
a(g7
S'F#4'
p284
g7
g7
I3
tp285
a(g7
g7
g7
g7
I4
tp286
a(S'E3'
p287
S'G#4'
p288
g7
S'E2'
p289
I1
tp290
a(g7
g7
g7
g7
I2
tp291
a(g7
g7
g7
g7
I3
tp292
a(g7
g7
g7
g7
I4
tp293
a(g7
S'E4'
p294
g7
g7
I1
tp295
a(g7
g7
g7
g7
I2
tp296
a(g7
g7
g7
g7
I3
tp297
a(g7
g7
g7
g7
I4
tp298
a(g7
S'C#4'
p299
g7
S'A2'
p300
I1
tp301
a(g7
g7
g7
g7
I2
tp302
a(g7
g7
g7
g7
I3
tp303
a(g7
g7
g7
g7
I4
tp304
a(S'C#3'
p305
g7
S'A4'
p306
g7
I1
tp307
a(g7
g7
g7
g7
I2
tp308
a(g7
g7
S'G#4'
p309
g7
I3
tp310
a(g7
g7
g7
g7
I4
tp311
a(S'F#3'
p312
g7
S'A4'
p313
g7
I1
tp314
a(g7
g7
g7
g7
I2
tp315
a(g7
g7
g7
g7
I3
tp316
a(g7
g7
g7
g7
I4
tp317
a(g7
S'E-4'
p318
g7
S'F#2'
p319
I1
tp320
a(g7
g7
g7
g7
I2
tp321
a(g7
S'E4'
p322
g7
g7
I3
tp323
a(g7
g7
g7
g7
I4
tp324
a(g7
S'E-4'
p325
g7
S'B2'
p326
I1
tp327
a(g7
g7
g7
g7
I2
tp328
a(g7
g7
g7
g7
I3
tp329
a(g7
g7
g7
g7
I4
tp330
a(S'E3'
p331
g7
g7
g7
I1
tp332
a(g7
g7
g7
g7
I2
tp333
a(S'F#3'
p334
g7
g7
g7
I3
tp335
a(g7
g7
g7
g7
I4
tp336
a(S'G#3'
p337
S'E4'
p338
S'G#4'
p339
g7
I1
tp340
a(g7
g7
g7
g7
I2
tp341
a(g7
g7
g7
g7
I3
tp342
a(g7
g7
g7
g7
I4
tp343
a(S'A3'
p344
g7
g7
g7
I1
tp345
a(g7
g7
g7
g7
I2
tp346
a(g7
g7
g7
g7
I3
tp347
a(g7
g7
g7
g7
I4
tp348
a(S'B3'
p349
g7
S'F#4'
p350
g7
I1
tp351
a(g7
g7
g7
g7
I2
tp352
a(S'F#3'
p353
g7
g7
g7
I3
tp354
a(g7
g7
g7
g7
I4
tp355
a(S'B3'
p356
S'E-4'
p357
g7
g7
I1
tp358
a(g7
g7
g7
g7
I2
tp359
a(g7
g7
g7
g7
I3
tp360
a(g7
g7
g7
g7
I4
tp361
a(g7
S'C#4'
p362
S'E4'
p363
g7
I1
tp364
a(g7
g7
g7
g7
I2
tp365
a(g7
g7
g7
g7
I3
tp366
a(g7
g7
g7
g7
I4
tp367
a(S'B-3'
p368
g7
g7
g7
I1
tp369
a(g7
g7
g7
g7
I2
tp370
a(g7
g7
g7
g7
I3
tp371
a(g7
g7
g7
g7
I4
tp372
a(S'B3'
p373
S'B3'
p374
S'E-4'
p375
g7
I1
tp376
a(g7
g7
g7
g7
I2
tp377
a(g7
g7
g7
g7
I3
tp378
a(g7
g7
g7
g7
I4
tp379
a(g7
g7
g7
g7
I1
tp380
a(g7
g7
g7
g7
I2
tp381
a(g7
g7
g7
g7
I3
tp382
a(g7
g7
g7
g7
I4
tp383
a(g4
S'B3'
p384
g4
g4
I1
tp385
a(g7
g7
g7
g7
I2
tp386
a(g7
g7
g7
g7
I3
tp387
a(g7
g7
g7
g7
I4
tp388
a(g7
g7
g7
g7
I1
tp389
a(g7
g7
g7
g7
I2
tp390
a(g7
g7
g7
g7
I3
tp391
a(g7
g7
g7
g7
I4
tp392
a(g7
S'C#4'
p393
g7
g7
I1
tp394
a(g7
g7
g7
g7
I2
tp395
a(g7
g7
g7
g7
I3
tp396
a(g7
g7
g7
g7
I4
tp397
a(g7
g7
g7
g7
I1
tp398
a(g7
g7
g7
g7
I2
tp399
a(g7
g7
g7
g7
I3
tp400
a(g7
g7
g7
g7
I4
tp401
a(S'E3'
p402
S'E4'
p403
g7
g7
I1
tp404
a(g7
g7
g7
g7
I2
tp405
a(g7
g7
g7
g7
I3
tp406
a(g7
g7
g7
g7
I4
tp407
a(g7
g7
g7
g7
I1
tp408
a(g7
g7
g7
g7
I2
tp409
a(g7
g7
g7
g7
I3
tp410
a(g7
g7
g7
g7
I4
tp411
a(S'F#3'
p412
S'E-4'
p413
g7
g7
I1
tp414
a(g7
g7
g7
g7
I2
tp415
a(g7
g7
g7
g7
I3
tp416
a(g7
g7
g7
g7
I4
tp417
a(g7
g7
g7
g7
I1
tp418
a(g7
g7
g7
g7
I2
tp419
a(g7
g7
g7
g7
I3
tp420
a(g7
g7
g7
g7
I4
tp421
a(S'A3'
p422
S'C#4'
p423
g7
g7
I1
tp424
a(g7
g7
g7
g7
I2
tp425
a(g7
g7
g7
g7
I3
tp426
a(g7
g7
g7
g7
I4
tp427
a(g7
g7
g7
g7
I1
tp428
a(g7
g7
g7
g7
I2
tp429
a(g7
g7
g7
g7
I3
tp430
a(g7
g7
g7
g7
I4
tp431
a(S'G#3'
p432
S'B3'
p433
g7
S'B2'
p434
I1
tp435
a(g7
g7
g7
g7
I2
tp436
a(g7
g7
g7
g7
I3
tp437
a(g7
g7
g7
g7
I4
tp438
a(g7
S'E4'
p439
g7
g7
I1
tp440
a(g7
g7
g7
g7
I2
tp441
a(g7
g7
g7
g7
I3
tp442
a(g7
g7
g7
g7
I4
tp443
a(S'F#3'
p444
g7
g7
g7
I1
tp445
a(g7
g7
g7
g7
I2
tp446
a(g7
g7
g7
g7
I3
tp447
a(g7
g7
g7
g7
I4
tp448
a(g7
S'E-4'
p449
g7
g7
I1
tp450
a(g7
g7
g7
g7
I2
tp451
a(g7
g7
g7
g7
I3
tp452
a(g7
g7
g7
g7
I4
tp453
a(S'E3'
p454
g7
S'E4'
p455
S'C#3'
p456
I1
tp457
a(g7
g7
g7
g7
I2
tp458
a(g7
g7
g7
g7
I3
tp459
a(g7
g7
g7
g7
I4
tp460
a(S'A3'
p461
S'C#4'
p462
g7
g7
I1
tp463
a(g7
g7
g7
g7
I2
tp464
a(g7
g7
g7
g7
I3
tp465
a(g7
g7
g7
g7
I4
tp466
a(g7
g7
g7
S'E3'
p467
I1
tp468
a(g7
g7
g7
g7
I2
tp469
a(g7
g7
g7
g7
I3
tp470
a(g7
g7
g7
g7
I4
tp471
a(S'G#3'
p472
S'B3'
p473
g7
g7
I1
tp474
a(g7
g7
g7
g7
I2
tp475
a(g7
S'B-3'
p476
g7
g7
I3
tp477
a(g7
g7
g7
g7
I4
tp478
a(S'F#3'
p479
S'B3'
p480
S'F#4'
p481
S'E-3'
p482
I1
tp483
a(g7
g7
g7
g7
I2
tp484
a(g7
g7
g7
g7
I3
tp485
a(g7
g7
g7
g7
I4
tp486
a(S'E3'
p487
S'F#4'
p488
g7
g7
I1
tp489
a(g7
g7
g7
g7
I2
tp490
a(S'E-3'
p491
g7
g7
g7
I3
tp492
a(g7
g7
g7
g7
I4
tp493
a(S'E3'
p494
g7
S'A4'
p495
S'C#3'
p496
I1
tp497
a(g7
g7
g7
g7
I2
tp498
a(g7
g7
g7
g7
I3
tp499
a(g7
g7
g7
g7
I4
tp500
a(S'F#3'
p501
S'E4'
p502
g7
g7
I1
tp503
a(g7
g7
g7
g7
I2
tp504
a(g7
S'E-4'
p505
g7
g7
I3
tp506
a(g7
g7
g7
g7
I4
tp507
a(S'G#3'
p508
S'E4'
p509
S'G#4'
p510
S'B2'
p511
I1
tp512
a(g7
g7
g7
g7
I2
tp513
a(g7
g7
g7
g7
I3
tp514
a(g7
g7
g7
g7
I4
tp515
a(S'A3'
p516
g7
g7
g7
I1
tp517
a(g7
g7
g7
g7
I2
tp518
a(g7
g7
g7
g7
I3
tp519
a(g7
g7
g7
g7
I4
tp520
a(S'B3'
p521
g7
S'F#4'
p522
g7
I1
tp523
a(g7
g7
g7
g7
I2
tp524
a(S'F#3'
p525
g7
g7
g7
I3
tp526
a(g7
g7
g7
g7
I4
tp527
a(S'A3'
p528
S'E-4'
p529
g7
g7
I1
tp530
a(g7
g7
g7
g7
I2
tp531
a(g7
g7
g7
g7
I3
tp532
a(g7
g7
g7
g7
I4
tp533
a(S'G#3'
p534
S'C#4'
p535
S'F4'
p536
g7
I1
tp537
a(g7
g7
g7
g7
I2
tp538
a(g7
g7
g7
g7
I3
tp539
a(g7
g7
g7
g7
I4
tp540
a(g7
g7
S'F#4'
p541
g7
I1
tp542
a(g7
g7
g7
g7
I2
tp543
a(g7
g7
g7
g7
I3
tp544
a(g7
g7
g7
g7
I4
tp545
a(S'F#3'
p546
g7
S'G#4'
p547
S'A2'
p548
I1
tp549
a(g7
g7
g7
g7
I2
tp550
a(g7
g7
g7
g7
I3
tp551
a(g7
g7
g7
g7
I4
tp552
a(g7
g7
S'A4'
p553
g7
I1
tp554
a(g7
g7
g7
g7
I2
tp555
a(g7
g7
g7
g7
I3
tp556
a(g7
g7
g7
g7
I4
tp557
a(g7
S'B3'
p558
S'B4'
p559
S'G#2'
p560
I1
tp561
a(g7
g7
g7
g7
I2
tp562
a(g7
g7
g7
g7
I3
tp563
a(g7
g7
g7
g7
I4
tp564
a(g7
S'C#4'
p565
S'F#4'
p566
g7
I1
tp567
a(g7
g7
g7
g7
I2
tp568
a(g7
g7
g7
g7
I3
tp569
a(g7
g7
g7
g7
I4
tp570
a(S'E3'
p571
S'E-4'
p572
S'B4'
p573
g7
I1
tp574
a(g7
g7
g7
g7
I2
tp575
a(g7
g7
g7
g7
I3
tp576
a(g7
g7
g7
g7
I4
tp577
a(g7
S'E4'
p578
g7
g7
I1
tp579
a(g7
g7
g7
g7
I2
tp580
a(g7
g7
g7
g7
I3
tp581
a(g7
g7
g7
g7
I4
tp582
a(S'E-3'
p583
S'F#4'
p584
g7
S'F#2'
p585
I1
tp586
a(g7
g7
g7
g7
I2
tp587
a(g7
g7
g7
g7
I3
tp588
a(g7
g7
g7
g7
I4
tp589
a(S'F3'
p590
S'C#4'
p591
g7
S'G#2'
p592
I1
tp593
a(g7
g7
g7
g7
I2
tp594
a(g7
g7
g7
g7
I3
tp595
a(g7
g7
g7
g7
I4
tp596
a(S'F#3'
p597
S'F#4'
p598
S'A4'
p599
S'A2'
p600
I1
tp601
a(g7
g7
g7
g7
I2
tp602
a(g7
g7
g7
g7
I3
tp603
a(g7
g7
g7
g7
I4
tp604
a(g7
g7
g7
S'B2'
p605
I1
tp606
a(g7
g7
g7
g7
I2
tp607
a(g7
g7
g7
g7
I3
tp608
a(g7
g7
g7
g7
I4
tp609
a(S'C#3'
p610
g7
S'G#4'
p611
S'C#3'
p612
I1
tp613
a(g7
g7
g7
g7
I2
tp614
a(g7
g7
g7
g7
I3
tp615
a(g7
g7
g7
g7
I4
tp616
a(S'E-3'
p617
g7
g7
S'G#2'
p618
I1
tp619
a(g7
g7
g7
g7
I2
tp620
a(g7
g7
g7
g7
I3
tp621
a(g7
g7
g7
g7
I4
tp622
a(S'E3'
p623
S'E4'
p624
g7
S'C#3'
p625
I1
tp626
a(g7
g7
g7
g7
I2
tp627
a(g7
g7
g7
g7
I3
tp628
a(g7
g7
g7
g7
I4
tp629
a(S'F#3'
p630
g7
g7
g7
I1
tp631
a(g7
g7
g7
g7
I2
tp632
a(g7
g7
g7
g7
I3
tp633
a(g7
g7
g7
g7
I4
tp634
a(S'G#3'
p635
S'E-4'
p636
g7
g7
I1
tp637
a(g7
g7
g7
g7
I2
tp638
a(g7
g7
g7
g7
I3
tp639
a(g7
g7
g7
g7
I4
tp640
a(S'E-3'
p641
g7
g7
g7
I1
tp642
a(g7
g7
g7
g7
I2
tp643
a(g7
g7
g7
g7
I3
tp644
a(g7
g7
g7
g7
I4
tp645
a(S'G#3'
p646
g7
g7
S'B2'
p647
I1
tp648
a(g7
g7
g7
g7
I2
tp649
a(g7
g7
g7
g7
I3
tp650
a(g7
g7
g7
g7
I4
tp651
a(g7
g7
S'A4'
p652
g7
I1
tp653
a(g7
g7
g7
g7
I2
tp654
a(g7
g7
S'B4'
p655
g7
I3
tp656
a(g7
g7
g7
g7
I4
tp657
a(g7
S'C#4'
p658
S'C#5'
p659
S'A2'
p660
I1
tp661
a(g7
g7
g7
g7
I2
tp662
a(g7
g7
g7
g7
I3
tp663
a(g7
g7
g7
g7
I4
tp664
a(g7
S'E-4'
p665
S'C5'
p666
g7
I1
tp667
a(g7
g7
g7
g7
I2
tp668
a(g7
g7
g7
g7
I3
tp669
a(g7
g7
g7
g7
I4
tp670
a(S'F#3'
p671
S'E4'
p672
S'C#5'
p673
g7
I1
tp674
a(g7
g7
g7
g7
I2
tp675
a(g7
g7
g7
g7
I3
tp676
a(g7
g7
g7
g7
I4
tp677
a(g7
S'F#4'
p678
S'E-5'
p679
g7
I1
tp680
a(g7
g7
g7
g7
I2
tp681
a(g7
g7
g7
g7
I3
tp682
a(g7
g7
g7
g7
I4
tp683
a(g7
S'G#4'
p684
S'C5'
p685
S'G#2'
p686
I1
tp687
a(g7
g7
g7
g7
I2
tp688
a(g7
g7
g7
g7
I3
tp689
a(g7
g7
g7
g7
I4
tp690
a(S'E3'
p691
g7
S'C#5'
p692
g7
I1
tp693
a(g7
g7
g7
g7
I2
tp694
a(g7
g7
g7
g7
I3
tp695
a(g7
g7
g7
g7
I4
tp696
a(S'E-3'
p697
S'F#4'
p698
g7
g7
I1
tp699
a(g7
g7
g7
g7
I2
tp700
a(g7
g7
g7
g7
I3
tp701
a(g7
g7
g7
g7
I4
tp702
a(g7
g7
S'C5'
p703
g7
I1
tp704
a(g7
g7
g7
g7
I2
tp705
a(g7
g7
g7
g7
I3
tp706
a(g7
g7
g7
g7
I4
tp707
a(S'C#3'
p708
S'E4'
p709
S'C#5'
p710
S'C#3'
p711
I1
tp712
a(g7
g7
g7
g7
I2
tp713
a(g7
g7
g7
g7
I3
tp714
a(g7
g7
g7
g7
I4
tp715
a(S'G#3'
p716
g7
g7
g7
I1
tp717
a(g7
g7
g7
g7
I2
tp718
a(g7
g7
g7
g7
I3
tp719
a(g7
g7
g7
g7
I4
tp720
a(S'C#4'
p721
g7
g7
g7
I1
tp722
a(g7
g7
g7
g7
I2
tp723
a(g7
g7
g7
g7
I3
tp724
a(g7
g7
g7
g7
I4
tp725
a(g7
g7
g7
S'C#3'
p726
I1
tp727
a(g7
g7
g7
g7
I2
tp728
a(g7
g7
g7
g7
I3
tp729
a(g7
g7
g7
g7
I4
tp730
a(g7
S'F#4'
p731
g4
S'D3'
p732
I1
tp733
a(g7
g7
g7
g7
I2
tp734
a(g7
g7
g7
g7
I3
tp735
a(g7
g7
g7
g7
I4
tp736
a(S'B3'
p737
g7
g7
g7
I1
tp738
a(g7
g7
g7
g7
I2
tp739
a(S'B-3'
p740
g7
g7
g7
I3
tp741
a(g7
g7
g7
g7
I4
tp742
a(S'B3'
p743
S'A4'
p744
g7
g7
I1
tp745
a(g7
g7
g7
g7
I2
tp746
a(g7
g7
g7
g7
I3
tp747
a(g7
g7
g7
g7
I4
tp748
a(g7
g7
g7
S'E-3'
p749
I1
tp750
a(g7
g7
g7
g7
I2
tp751
a(g7
g7
g7
g7
I3
tp752
a(g7
g7
g7
g7
I4
tp753
a(g7
S'G#4'
p754
S'B4'
p755
S'E3'
p756
I1
tp757
a(g7
g7
g7
g7
I2
tp758
a(g7
g7
g7
g7
I3
tp759
a(g7
g7
g7
g7
I4
tp760
a(S'A3'
p761
g7
g7
g7
I1
tp762
a(g7
g7
g7
g7
I2
tp763
a(S'G#3'
p764
g7
g7
g7
I3
tp765
a(g7
g7
g7
g7
I4
tp766
a(S'A3'
p767
S'F#4'
p768
g7
g7
I1
tp769
a(g7
g7
g7
g7
I2
tp770
a(g7
g7
g7
g7
I3
tp771
a(g7
g7
g7
g7
I4
tp772
a(S'B3'
p773
g7
g7
S'E-3'
p774
I1
tp775
a(g7
g7
g7
g7
I2
tp776
a(S'A3'
p777
g7
g7
g7
I3
tp778
a(g7
g7
g7
g7
I4
tp779
a(S'G#3'
p780
S'E4'
p781
S'C#5'
p782
S'E3'
p783
I1
tp784
a(g7
g7
g7
g7
I2
tp785
a(g7
g7
g7
g7
I3
tp786
a(g7
g7
g7
g7
I4
tp787
a(g7
S'C#4'
p788
g7
g7
I1
tp789
a(g7
g7
g7
g7
I2
tp790
a(g7
g7
g7
g7
I3
tp791
a(g7
g7
g7
g7
I4
tp792
a(g7
S'G#4'
p793
S'E5'
p794
S'C#3'
p795
I1
tp796
a(g7
g7
g7
g7
I2
tp797
a(g7
g7
g7
g7
I3
tp798
a(g7
g7
g7
g7
I4
tp799
a(S'G#3'
p800
g7
g7
g7
I1
tp801
a(g7
g7
g7
g7
I2
tp802
a(g7
g7
g7
g7
I3
tp803
a(g7
g7
g7
g7
I4
tp804
a(S'A3'
p805
g7
S'E-5'
p806
S'F#3'
p807
I1
tp808
a(g7
g7
g7
g7
I2
tp809
a(g7
g7
g7
g7
I3
tp810
a(g7
g7
g7
g7
I4
tp811
a(g7
S'F#4'
p812
g7
g7
I1
tp813
a(g7
g7
g7
g7
I2
tp814
a(g7
S'F4'
p815
g7
g7
I3
tp816
a(g7
g7
g7
g7
I4
tp817
a(g7
S'F#4'
p818
S'C#5'
p819
S'E3'
p820
I1
tp821
a(g7
g7
g7
g7
I2
tp822
a(g7
g7
g7
g7
I3
tp823
a(g7
g7
g7
g7
I4
tp824
a(S'B-3'
p825
g7
g7
g7
I1
tp826
a(g7
g7
g7
g7
I2
tp827
a(g7
g7
g7
g7
I3
tp828
a(g7
g7
g7
g7
I4
tp829
a(S'B3'
p830
g7
S'B4'
p831
S'E-3'
p832
I1
tp833
a(g7
g7
g7
g7
I2
tp834
a(g7
g7
g7
g7
I3
tp835
a(g7
g7
g7
g7
I4
tp836
a(g7
S'E4'
p837
g7
g7
I1
tp838
a(g7
g7
g7
g7
I2
tp839
a(g7
S'E-4'
p840
g7
g7
I3
tp841
a(g7
g7
g7
g7
I4
tp842
a(g7
S'E4'
p843
S'C#5'
p844
S'C#3'
p845
I1
tp846
a(g7
g7
g7
g7
I2
tp847
a(g7
g7
g7
g7
I3
tp848
a(g7
g7
g7
g7
I4
tp849
a(S'B-3'
p850
S'F#4'
p851
g7
g7
I1
tp852
a(g7
g7
g7
g7
I2
tp853
a(g7
S'E4'
p854
g7
g7
I3
tp855
a(g7
g7
g7
g7
I4
tp856
a(S'B3'
p857
S'E-4'
p858
S'F#4'
p859
S'B2'
p860
I1
tp861
a(g7
g7
g7
g7
I2
tp862
a(g7
g7
g7
g7
I3
tp863
a(g7
g7
g7
g7
I4
tp864
a(g7
g7
S'F#4'
p865
g7
I1
tp866
a(g7
g7
g7
g7
I2
tp867
a(S'A3'
p868
g7
g7
g7
I3
tp869
a(g7
g7
g7
g7
I4
tp870
a(S'G#3'
p871
g7
S'G#4'
p872
g7
I1
tp873
a(g7
g7
g7
g7
I2
tp874
a(S'F#3'
p875
g7
g7
g7
I3
tp876
a(g7
g7
g7
g7
I4
tp877
a(S'E3'
p878
S'G#3'
p879
g7
g7
I1
tp880
a(g7
g7
g7
g7
I2
tp881
a(S'E-3'
p882
g7
g7
g7
I3
tp883
a(g7
g7
g7
g7
I4
tp884
a(S'E3'
p885
S'A3'
p886
g7
S'C#3'
p887
I1
tp888
a(g7
g7
g7
g7
I2
tp889
a(g7
g7
g7
g7
I3
tp890
a(g7
g7
g7
g7
I4
tp891
a(g7
g7
S'F#4'
p892
g7
I1
tp893
a(g7
g7
g7
g7
I2
tp894
a(g7
g7
S'E4'
p895
g7
I3
tp896
a(g7
g7
g7
g7
I4
tp897
a(g4
g7
S'F#4'
p898
S'E3'
p899
I1
tp900
a(g7
g7
g7
g7
I2
tp901
a(g7
g7
g7
g7
I3
tp902
a(g7
g7
g7
g7
I4
tp903
a(g7
S'B-3'
p904
g7
g7
I1
tp905
a(g7
g7
g7
g7
I2
tp906
a(g7
g7
g7
g7
I3
tp907
a(g7
g7
g7
g7
I4
tp908
a(S'F#3'
p909
S'B3'
p910
g7
S'E-3'
p911
I1
tp912
a(g7
g7
g7
g7
I2
tp913
a(g7
g7
g7
g7
I3
tp914
a(g7
g7
g7
g7
I4
tp915
a(g7
g7
S'E4'
p916
g7
I1
tp917
a(g7
g7
g7
g7
I2
tp918
a(g7
g7
S'E-4'
p919
g7
I3
tp920
a(g7
g7
g7
g7
I4
tp921
a(g7
g7
S'E4'
p922
S'C#3'
p923
I1
tp924
a(g7
g7
g7
g7
I2
tp925
a(g7
g7
g7
g7
I3
tp926
a(g7
g7
g7
g7
I4
tp927
a(g7
S'B-3'
p928
S'F#4'
p929
g7
I1
tp930
a(g7
g7
g7
g7
I2
tp931
a(g7
g7
S'E4'
p932
g7
I3
tp933
a(g7
g7
g7
g7
I4
tp934
a(S'G#3'
p935
S'B3'
p936
S'E-4'
p937
S'B2'
p938
I1
tp939
a(g7
g7
g7
g7
I2
tp940
a(g7
g7
g7
g7
I3
tp941
a(g7
g7
g7
g7
I4
tp942
a(g7
g7
S'B4'
p943
S'G#2'
p944
I1
tp945
a(g7
g7
g7
g7
I2
tp946
a(g7
g7
g7
g7
I3
tp947
a(g7
g7
g7
g7
I4
tp948
a(S'B3'
p949
S'D4'
p950
S'F4'
p951
g7
I1
tp952
a(g7
g7
g7
g7
I2
tp953
a(g7
g7
g7
g7
I3
tp954
a(g7
g7
g7
g7
I4
tp955
a(g7
g7
g7
S'A2'
p956
I1
tp957
a(g7
g7
g7
g7
I2
tp958
a(g7
g7
g7
S'B2'
p959
I3
tp960
a(g7
g7
g7
g7
I4
tp961
a(S'A3'
p962
S'C#4'
p963
g7
S'C#3'
p964
I1
tp965
a(g7
g7
g7
g7
I2
tp966
a(g7
g7
g7
g7
I3
tp967
a(g7
g7
g7
g7
I4
tp968
a(g7
g7
S'F#4'
p969
g7
I1
tp970
a(g7
g7
g7
g7
I2
tp971
a(g7
g7
g7
g7
I3
tp972
a(g7
g7
g7
g7
I4
tp973
a(S'G#3'
p974
g7
g7
S'B2'
p975
I1
tp976
a(g7
g7
g7
g7
I2
tp977
a(g7
g7
g7
g7
I3
tp978
a(g7
g7
g7
g7
I4
tp979
a(g7
g7
S'F4'
p980
g7
I1
tp981
a(g7
g7
g7
g7
I2
tp982
a(g7
g7
g7
g7
I3
tp983
a(g7
g7
g7
g7
I4
tp984
a(g7
g7
S'C#5'
p985
S'A2'
p986
I1
tp987
a(g7
g7
g7
g7
I2
tp988
a(g7
g7
g7
g7
I3
tp989
a(g7
g7
g7
g7
I4
tp990
a(S'F#3'
p991
g7
g7
g7
I1
tp992
a(g7
g7
g7
g7
I2
tp993
a(g7
g7
g7
g7
I3
tp994
a(g7
g7
g7
g7
I4
tp995
a(g7
S'G#4'
p996
S'B4'
p997
S'G#2'
p998
I1
tp999
a(g7
g7
g7
g7
I2
tp1000
a(g7
g7
g7
g7
I3
tp1001
a(g7
g7
g7
g7
I4
tp1002
a(S'F3'
p1003
g7
g7
g7
I1
tp1004
a(g7
g7
g7
g7
I2
tp1005
a(g7
g7
g7
g7
I3
tp1006
a(g7
g7
g7
g7
I4
tp1007
a(S'F#3'
p1008
S'C#4'
p1009
g7
S'F#2'
p1010
I1
tp1011
a(g7
g7
g7
g7
I2
tp1012
a(g7
g7
g7
g7
I3
tp1013
a(g7
g7
g7
g7
I4
tp1014
a(g7
g7
S'A4'
p1015
g7
I1
tp1016
a(g7
g7
g7
g7
I2
tp1017
a(g7
g7
g7
g7
I3
tp1018
a(g7
g7
g7
g7
I4
tp1019
a(S'D3'
p1020
S'B3'
p1021
g7
S'B2'
p1022
I1
tp1023
a(g7
g7
g7
g7
I2
tp1024
a(g7
g7
g7
g7
I3
tp1025
a(g7
g7
g7
g7
I4
tp1026
a(g7
g7
S'G#4'
p1027
g7
I1
tp1028
a(g7
g7
g7
g7
I2
tp1029
a(g7
g7
g7
g7
I3
tp1030
a(g7
g7
g7
g7
I4
tp1031
a(S'C#3'
p1032
S'A3'
p1033
g7
S'C#3'
p1034
I1
tp1035
a(g7
g7
g7
g7
I2
tp1036
a(g7
g7
g7
g7
I3
tp1037
a(g7
g7
g7
g7
I4
tp1038
a(g7
g7
S'F#4'
p1039
g7
I1
tp1040
a(g7
g7
g7
g7
I2
tp1041
a(g7
g7
g7
g7
I3
tp1042
a(g7
g7
g7
g7
I4
tp1043
a(g7
S'G#3'
p1044
g7
S'C#2'
p1045
I1
tp1046
a(g7
g7
g7
g7
I2
tp1047
a(g7
g7
g7
g7
I3
tp1048
a(g7
g7
g7
g7
I4
tp1049
a(g7
g7
S'F4'
p1050
g7
I1
tp1051
a(g7
g7
g7
g7
I2
tp1052
a(g7
g7
g7
g7
I3
tp1053
a(g7
g7
g7
g7
I4
tp1054
a(g7
S'A3'
p1055
S'F#4'
p1056
S'F#2'
p1057
I1
tp1058
a(g7
g7
g7
g7
I2
tp1059
a(g7
g7
g7
g7
I3
tp1060
a(g7
g7
g7
g7
I4
tp1061
a(g7
S'B3'
p1062
g7
S'G#2'
p1063
I1
tp1064
a(g7
g7
g7
g7
I2
tp1065
a(g7
g7
g7
g7
I3
tp1066
a(g7
g7
g7
g7
I4
tp1067
a(g7
S'C#4'
p1068
g7
S'A2'
p1069
I1
tp1070
a(g7
g7
g7
g7
I2
tp1071
a(g7
g7
g7
g7
I3
tp1072
a(g7
g7
g7
g7
I4
tp1073
a(S'E-3'
p1074
g7
g7
S'F#2'
p1075
I1
tp1076
a(g7
g7
g7
g7
I2
tp1077
a(g7
g7
g7
g7
I3
tp1078
a(g7
g7
g7
g7
I4
tp1079
a(S'F3'
p1080
g7
S'G#4'
p1081
S'C#3'
p1082
I1
tp1083
a(g7
g7
g7
g7
I2
tp1084
a(g7
g7
g7
g7
I3
tp1085
a(g7
g7
g7
g7
I4
tp1086
a(S'C#3'
p1087
g7
S'A4'
p1088
g7
I1
tp1089
a(g7
g7
g7
g7
I2
tp1090
a(g7
g7
g7
g7
I3
tp1091
a(g7
g7
g7
g7
I4
tp1092
a(S'G#3'
p1093
S'E-4'
p1094
S'B4'
p1095
S'B2'
p1096
I1
tp1097
a(g7
g7
g7
g7
I2
tp1098
a(g7
g7
g7
g7
I3
tp1099
a(g7
g7
g7
g7
I4
tp1100
a(g7
S'F4'
p1101
g7
S'C#3'
p1102
I1
tp1103
a(g7
g7
g7
g7
I2
tp1104
a(g7
g7
g7
g7
I3
tp1105
a(g7
g7
g7
g7
I4
tp1106
a(S'F#3'
p1107
S'F#4'
p1108
g7
S'D3'
p1109
I1
tp1110
a(g7
g7
g7
g7
I2
tp1111
a(g7
g7
g7
g7
I3
tp1112
a(g7
g7
g7
g7
I4
tp1113
a(g7
g7
S'A4'
p1114
S'C#3'
p1115
I1
tp1116
a(g7
g7
g7
g7
I2
tp1117
a(g7
g7
g7
g7
I3
tp1118
a(g7
g7
g7
g7
I4
tp1119
a(S'G#3'
p1120
g7
S'G#4'
p1121
S'C3'
p1122
I1
tp1123
a(g7
g7
g7
g7
I2
tp1124
a(g7
g7
g7
g7
I3
tp1125
a(g7
g7
g7
g7
I4
tp1126
a(S'C#3'
p1127
S'E4'
p1128
g7
S'C#3'
p1129
I1
tp1130
a(g7
g7
g7
g7
I2
tp1131
a(g7
g7
g7
g7
I3
tp1132
a(g7
g7
g7
g7
I4
tp1133
a(g7
S'E-4'
p1134
S'F#4'
p1135
S'G#3'
p1136
I1
tp1137
a(g7
g7
g7
g7
I2
tp1138
a(g7
g7
g7
g7
I3
tp1139
a(g7
g7
g7
g7
I4
tp1140
a(S'C3'
p1141
g7
g7
g7
I1
tp1142
a(g7
g7
g7
g7
I2
tp1143
a(g7
g7
g7
g7
I3
tp1144
a(g7
g7
g7
g7
I4
tp1145
a(S'C#3'
p1146
S'C#4'
p1147
S'E4'
p1148
g7
I1
tp1149
a(g7
g7
g7
g7
I2
tp1150
a(g7
g7
g7
g7
I3
tp1151
a(g7
g7
g7
g7
I4
tp1152
a(S'E-3'
p1153
g7
S'F#4'
p1154
g7
I1
tp1155
a(g7
g7
g7
g7
I2
tp1156
a(g7
g7
g7
g7
I3
tp1157
a(g7
g7
g7
g7
I4
tp1158
a(S'E3'
p1159
g7
S'G#4'
p1160
S'G#2'
p1161
I1
tp1162
a(g7
g7
g7
g7
I2
tp1163
a(g7
g7
g7
g7
I3
tp1164
a(g7
g7
g7
g7
I4
tp1165
a(S'F#3'
p1166
S'E-4'
p1167
g7
g7
I1
tp1168
a(g7
g7
g7
g7
I2
tp1169
a(S'E3'
p1170
S'C#4'
p1171
g7
g7
I3
tp1172
a(g7
g7
g7
g7
I4
tp1173
a(S'E-3'
p1174
S'C4'
p1175
g7
g7
I1
tp1176
a(g7
g7
g7
g7
I2
tp1177
a(g7
g7
g7
g7
I3
tp1178
a(g7
g7
g7
g7
I4
tp1179
a(g7
g7
S'A4'
p1180
g7
I1
tp1181
a(g7
g7
g7
g7
I2
tp1182
a(g7
g7
g7
g7
I3
tp1183
a(g7
g7
g7
g7
I4
tp1184
a(g7
S'C#4'
p1185
S'G#4'
p1186
S'B-2'
p1187
I1
tp1188
a(g7
g7
g7
g7
I2
tp1189
a(g7
g7
g7
g7
I3
tp1190
a(g7
g7
g7
g7
I4
tp1191
a(g7
S'E-4'
p1192
S'F#4'
p1193
S'C3'
p1194
I1
tp1195
a(g7
g7
g7
g7
I2
tp1196
a(g7
g7
g7
g7
I3
tp1197
a(g7
g7
g7
g7
I4
tp1198
a(S'E3'
p1199
S'G#3'
p1200
S'E4'
p1201
S'C#3'
p1202
I1
tp1203
a(g7
g7
g7
g7
I2
tp1204
a(g7
g7
g7
g7
I3
tp1205
a(g7
g7
g7
g7
I4
tp1206
a(S'F#3'
p1207
g7
g7
g7
I1
tp1208
a(g7
g7
g7
g7
I2
tp1209
a(g7
g7
g7
g7
I3
tp1210
a(g7
g7
g7
g7
I4
tp1211
a(S'G#3'
p1212
g4
S'E-4'
p1213
g7
I1
tp1214
a(g7
g7
g7
g7
I2
tp1215
a(g7
g7
g7
g7
I3
tp1216
a(g7
g7
g7
g7
I4
tp1217
a(g7
g7
S'E4'
p1218
S'B2'
p1219
I1
tp1220
a(g7
g7
g7
g7
I2
tp1221
a(g7
g7
S'E-4'
p1222
g7
I3
tp1223
a(g7
g7
g7
g7
I4
tp1224
a(g7
g7
S'C#4'
p1225
S'A2'
p1226
I1
tp1227
a(g7
g7
g7
g7
I2
tp1228
a(g7
g7
g7
g7
I3
tp1229
a(g7
g7
g7
g7
I4
tp1230
a(S'F#3'
p1231
S'A4'
p1232
g7
g7
I1
tp1233
a(g7
g7
g7
g7
I2
tp1234
a(g7
g7
g7
g7
I3
tp1235
a(g7
g7
g7
g7
I4
tp1236
a(S'E3'
p1237
S'C4'
p1238
g4
S'G#2'
p1239
I1
tp1240
a(g7
g7
g7
g7
I2
tp1241
a(g7
g7
g7
g7
I3
tp1242
a(g7
g7
g7
g7
I4
tp1243
a(g7
S'C#4'
p1244
g7
g7
I1
tp1245
a(g7
g7
g7
g7
I2
tp1246
a(g7
g7
g7
g7
I3
tp1247
a(g7
g7
g7
g7
I4
tp1248
a(S'E-3'
p1249
g7
S'G#4'
p1250
g7
I1
tp1251
a(g7
g7
g7
g7
I2
tp1252
a(g7
g7
g7
g7
I3
tp1253
a(g7
g7
g7
g7
I4
tp1254
a(g7
S'C4'
p1255
g7
g7
I1
tp1256
a(g7
g7
g7
g7
I2
tp1257
a(g7
g7
g7
g7
I3
tp1258
a(g7
g7
g7
g7
I4
tp1259
a(S'E3'
p1260
S'C#4'
p1261
S'A4'
p1262
g7
I1
tp1263
a(g7
g7
g7
g7
I2
tp1264
a(g7
g7
g7
g7
I3
tp1265
a(g7
g7
g7
g7
I4
tp1266
a(g7
g7
S'C#5'
p1267
g7
I1
tp1268
a(g7
g7
g7
g7
I2
tp1269
a(g7
g7
g7
g7
I3
tp1270
a(g7
g7
g7
g7
I4
tp1271
a(g4
S'E-4'
p1272
S'B4'
p1273
S'F#2'
p1274
I1
tp1275
a(g7
g7
g7
g7
I2
tp1276
a(g7
g7
g7
g7
I3
tp1277
a(g7
g7
g7
g7
I4
tp1278
a(g7
g7
S'A4'
p1279
g7
I1
tp1280
a(g7
g7
g7
g7
I2
tp1281
a(g7
g7
g7
g7
I3
tp1282
a(g7
g7
g7
g7
I4
tp1283
a(g7
S'E4'
p1284
S'G#4'
p1285
S'E2'
p1286
I1
tp1287
a(g7
g7
g7
g7
I2
tp1288
a(g7
g7
g7
g7
I3
tp1289
a(g7
g7
g7
g7
I4
tp1290
a(g7
S'G#4'
p1291
g7
S'C#2'
p1292
I1
tp1293
a(g7
g7
g7
g7
I2
tp1294
a(g7
g7
g7
g7
I3
tp1295
a(g7
g7
g7
g7
I4
tp1296
a(g7
S'F#4'
p1297
S'B-4'
p1298
S'F#2'
p1299
I1
tp1300
a(g7
g7
g7
g7
I2
tp1301
a(g7
g7
g7
g7
I3
tp1302
a(g7
g7
g7
g7
I4
tp1303
a(g7
S'E4'
p1304
g7
g7
I1
tp1305
a(g7
g7
g7
g7
I2
tp1306
a(g7
g7
g7
g7
I3
tp1307
a(g7
g7
g7
g7
I4
tp1308
a(g7
S'E-4'
p1309
S'B4'
p1310
S'B2'
p1311
I1
tp1312
a(g7
g7
g7
g7
I2
tp1313
a(g7
g7
g7
g7
I3
tp1314
a(g7
g7
g7
g7
I4
tp1315
a(g7
S'A4'
p1316
g7
g7
I1
tp1317
a(g7
g7
g7
g7
I2
tp1318
a(g7
g7
g7
g7
I3
tp1319
a(g7
g7
g7
g7
I4
tp1320
a(S'B3'
p1321
S'G#4'
p1322
g7
g4
I1
tp1323
a(g7
g7
g7
g7
I2
tp1324
a(g7
g7
g7
g7
I3
tp1325
a(g7
g7
g7
g7
I4
tp1326
a(g7
S'F#4'
p1327
g7
g7
I1
tp1328
a(g7
g7
g7
g7
I2
tp1329
a(g7
g7
g7
g7
I3
tp1330
a(g7
g7
g7
g7
I4
tp1331
a(S'C#4'
p1332
S'E4'
p1333
g7
g7
I1
tp1334
a(g7
g7
g7
g7
I2
tp1335
a(g7
g7
g7
g7
I3
tp1336
a(g7
g7
g7
g7
I4
tp1337
a(S'E4'
p1338
S'G#4'
p1339
g7
g7
I1
tp1340
a(g7
g7
g7
g7
I2
tp1341
a(g7
g7
g7
g7
I3
tp1342
a(g7
g7
g7
g7
I4
tp1343
a(S'E-4'
p1344
S'F#4'
p1345
g7
S'F#3'
p1346
I1
tp1347
a(g7
g7
g7
g7
I2
tp1348
a(g7
g7
g7
g7
I3
tp1349
a(g7
g7
g7
g7
I4
tp1350
a(S'C#4'
p1351
S'E4'
p1352
S'B-4'
p1353
g7
I1
tp1354
a(g7
g7
g7
g7
I2
tp1355
a(g7
g7
g7
g7
I3
tp1356
a(g7
g7
g7
g7
I4
tp1357
a(S'B3'
p1358
S'E-4'
p1359
S'B4'
p1360
S'G#3'
p1361
I1
tp1362
a(g7
g7
g7
g7
I2
tp1363
a(g7
g7
g7
g7
I3
tp1364
a(g7
g7
g7
g7
I4
tp1365
a(S'D4'
p1366
S'E4'
p1367
S'G#4'
p1368
S'B3'
p1369
I1
tp1370
a(g7
g7
g7
g7
I2
tp1371
a(g7
g7
g7
g7
I3
tp1372
a(g7
g7
g7
g7
I4
tp1373
a(S'C#4'
p1374
S'F#4'
p1375
S'A4'
p1376
S'A3'
p1377
I1
tp1378
a(g7
g7
g7
g7
I2
tp1379
a(g7
g7
g7
g7
I3
tp1380
a(g7
g7
g7
g7
I4
tp1381
a(S'B3'
p1382
S'G#4'
p1383
S'B4'
p1384
S'G#3'
p1385
I1
tp1386
a(g7
g7
g7
g7
I2
tp1387
a(g7
g7
g7
g7
I3
tp1388
a(g7
g7
g7
g7
I4
tp1389
a(S'A3'
p1390
S'A4'
p1391
S'C#5'
p1392
S'F#3'
p1393
I1
tp1394
a(g7
g7
g7
g7
I2
tp1395
a(g7
g7
g7
g7
I3
tp1396
a(g7
g7
g7
g7
I4
tp1397
a(g7
g7
S'E-5'
p1398
g7
I1
tp1399
a(g7
g7
g7
g7
I2
tp1400
a(g7
g7
g7
g7
I3
tp1401
a(g7
g7
g7
g7
I4
tp1402
a(S'B3'
p1403
g7
S'E5'
p1404
S'E3'
p1405
I1
tp1406
a(g7
g7
g7
g7
I2
tp1407
a(g7
g7
g7
g7
I3
tp1408
a(g7
g7
g7
g7
I4
tp1409
a(g7
S'G#4'
p1410
g7
g7
I1
tp1411
a(g7
g7
g7
g7
I2
tp1412
a(g7
g7
g7
g7
I3
tp1413
a(g7
g7
g7
g7
I4
tp1414
a(g7
S'F#4'
p1415
g7
g4
I1
tp1416
a(g7
g7
g7
g7
I2
tp1417
a(g7
g7
g7
g7
I3
tp1418
a(g7
g7
g7
g7
I4
tp1419
a(g7
S'E4'
p1420
g7
g7
I1
tp1421
a(g7
g7
g7
g7
I2
tp1422
a(g7
g7
g7
g7
I3
tp1423
a(g7
g7
g7
g7
I4
tp1424
a(g7
S'F#4'
p1425
g7
S'B2'
p1426
I1
tp1427
a(g7
g7
g7
g7
I2
tp1428
a(g7
g7
g7
g7
I3
tp1429
a(g7
g7
g7
g7
I4
tp1430
a(S'A3'
p1431
g7
S'E-5'
p1432
g7
I1
tp1433
a(g7
g7
g7
g7
I2
tp1434
a(g7
g7
g7
g7
I3
tp1435
a(g7
g7
g7
g7
I4
tp1436
a(S'G#3'
p1437
S'E4'
p1438
S'E5'
p1439
S'C#3'
p1440
I1
tp1441
a(g7
g7
g7
g7
I2
tp1442
a(g7
g7
g7
g7
I3
tp1443
a(g7
g7
g7
g7
I4
tp1444
a(g7
g7
S'B4'
p1445
S'E3'
p1446
I1
tp1447
a(g7
g7
g7
g7
I2
tp1448
a(g7
g7
g7
g7
I3
tp1449
a(g7
g7
g7
g7
I4
tp1450
a(S'F#3'
p1451
g4
g7
S'E-3'
p1452
I1
tp1453
a(g7
g7
g7
g7
I2
tp1454
a(g7
g7
g7
g7
I3
tp1455
a(g7
g7
g7
g7
I4
tp1456
a(g7
S'E4'
p1457
S'B-4'
p1458
S'C#3'
p1459
I1
tp1460
a(g7
g7
g7
g7
I2
tp1461
a(g7
g7
g7
g7
I3
tp1462
a(g7
g7
g7
g7
I4
tp1463
a(g7
S'F#4'
p1464
S'B4'
p1465
S'E-3'
p1466
I1
tp1467
a(g7
g7
g7
g7
I2
tp1468
a(g7
g7
g7
g7
I3
tp1469
a(g7
g7
g7
g7
I4
tp1470
a(S'E-3'
p1471
g7
g7
S'B2'
p1472
I1
tp1473
a(g7
g7
g7
g7
I2
tp1474
a(g7
g7
g7
g7
I3
tp1475
a(g7
g7
g7
g7
I4
tp1476
a(S'E3'
p1477
S'A4'
p1478
g4
S'C#3'
p1479
I1
tp1480
a(g7
g7
g7
g7
I2
tp1481
a(g7
g7
g7
g7
I3
tp1482
a(g7
g7
g7
g7
I4
tp1483
a(S'F#3'
p1484
g7
S'F#5'
p1485
S'E-3'
p1486
I1
tp1487
a(g7
g7
g7
g7
I2
tp1488
a(g7
g7
g7
g7
I3
tp1489
a(g7
g7
g7
g7
I4
tp1490
a(S'G#3'
p1491
S'G#4'
p1492
S'B4'
p1493
S'E3'
p1494
I1
tp1495
a(g7
g7
g7
g7
I2
tp1496
a(g7
g7
g7
g7
I3
tp1497
a(g7
g7
g7
g7
I4
tp1498
a(S'B3'
p1499
g7
S'G#4'
p1500
g7
I1
tp1501
a(g7
g7
g7
g7
I2
tp1502
a(g7
g7
g7
g7
I3
tp1503
a(g7
g7
g7
g7
I4
tp1504
a(S'C#4'
p1505
S'F#4'
p1506
S'A4'
p1507
g7
I1
tp1508
a(g7
g7
g7
g7
I2
tp1509
a(g7
g7
g7
g7
I3
tp1510
a(g7
g7
g7
g7
I4
tp1511
a(S'E-4'
p1512
g7
S'B4'
p1513
S'E-3'
p1514
I1
tp1515
a(g7
g7
g7
g7
I2
tp1516
a(g7
g7
g7
g7
I3
tp1517
a(g7
g7
g7
g7
I4
tp1518
a(S'G#3'
p1519
S'E4'
p1520
S'C#5'
p1521
S'C#3'
p1522
I1
tp1523
a(g7
g7
g7
g7
I2
tp1524
a(g7
g7
g7
g7
I3
tp1525
a(g7
g7
g7
g7
I4
tp1526
a(S'E3'
p1527
S'A4'
p1528
g7
S'C#3'
p1529
I1
tp1530
a(g7
g7
g7
g7
I2
tp1531
a(g7
g7
g7
g7
I3
tp1532
a(g7
g7
g7
g7
I4
tp1533
a(S'F#3'
p1534
g7
S'B4'
p1535
S'E-3'
p1536
I1
tp1537
a(g7
g7
g7
g7
I2
tp1538
a(g7
g7
g7
g7
I3
tp1539
a(g7
g7
g7
g7
I4
tp1540
a(S'G#3'
p1541
S'G#4'
p1542
g7
S'F3'
p1543
I1
tp1544
a(g7
g7
g7
g7
I2
tp1545
a(g7
g7
g7
g7
I3
tp1546
a(g7
g7
g7
g7
I4
tp1547
a(S'A3'
p1548
S'F#4'
p1549
S'A4'
p1550
S'F#3'
p1551
I1
tp1552
a(g7
g7
g7
g7
I2
tp1553
a(g7
g7
g7
g7
I3
tp1554
a(g7
g7
g7
g7
I4
tp1555
a(S'B3'
p1556
S'D5'
p1557
g7
g7
I1
tp1558
a(g7
g7
g7
g7
I2
tp1559
a(g7
g7
g7
g7
I3
tp1560
a(g7
g7
g7
g7
I4
tp1561
a(S'C#4'
p1562
S'C#5'
p1563
S'G#4'
p1564
g7
I1
tp1565
a(g7
g7
g7
g7
I2
tp1566
a(g7
g7
g7
g7
I3
tp1567
a(g7
g7
g7
g7
I4
tp1568
a(g7
S'B4'
p1569
g7
S'F3'
p1570
I1
tp1571
a(g7
g7
g7
g7
I2
tp1572
a(g7
g7
g7
g7
I3
tp1573
a(g7
g7
g7
g7
I4
tp1574
a(g7
S'A4'
p1575
S'F#4'
p1576
S'F#3'
p1577
I1
tp1578
a(g7
g7
g7
g7
I2
tp1579
a(g7
g7
g7
g7
I3
tp1580
a(g7
g7
g7
g7
I4
tp1581
a(S'C#4'
p1582
S'G4'
p1583
S'E5'
p1584
S'E-3'
p1585
I1
tp1586
a(g7
g7
g7
g7
I2
tp1587
a(g7
g7
g7
g7
I3
tp1588
a(g7
g7
g7
g7
I4
tp1589
a(S'B3'
p1590
S'G#4'
p1591
S'E-5'
p1592
S'F3'
p1593
I1
tp1594
a(g7
g7
g7
g7
I2
tp1595
a(g7
g7
g7
g7
I3
tp1596
a(g7
g7
g7
g7
I4
tp1597
a(S'B-3'
p1598
S'B-4'
p1599
S'C#5'
p1600
S'G3'
p1601
I1
tp1602
a(g7
g7
g7
g7
I2
tp1603
a(g7
g7
g7
g7
I3
tp1604
a(g7
g7
g7
g7
I4
tp1605
a(S'B3'
p1606
S'G#4'
p1607
S'B4'
p1608
S'G#3'
p1609
I1
tp1610
a(g7
g7
g7
g7
I2
tp1611
a(g7
g7
g7
g7
I3
tp1612
a(g7
g7
g7
g7
I4
tp1613
a(S'E-4'
p1614
S'F#4'
p1615
g7
g7
I1
tp1616
a(g7
g7
g7
g7
I2
tp1617
a(g7
g7
g7
g7
I3
tp1618
a(g7
g7
g7
g7
I4
tp1619
a(S'C#4'
p1620
S'E4'
p1621
S'B-4'
p1622
g7
I1
tp1623
a(g7
g7
g7
g7
I2
tp1624
a(g7
g7
g7
g7
I3
tp1625
a(g7
g7
g7
g7
I4
tp1626
a(g7
g7
g7
S'G3'
p1627
I1
tp1628
a(g7
g7
g7
g7
I2
tp1629
a(g7
g7
g7
g7
I3
tp1630
a(g7
g7
g7
g7
I4
tp1631
a(S'B3'
p1632
S'E-4'
p1633
g7
S'G#3'
p1634
I1
tp1635
a(g7
g7
g7
g7
I2
tp1636
a(g7
g7
g7
g7
I3
tp1637
a(g7
g7
g7
g7
I4
tp1638
a(g7
g7
S'G#4'
p1639
g7
I1
tp1640
a(g7
g7
g7
g7
I2
tp1641
a(g7
g7
S'G4'
p1642
g7
I3
tp1643
a(g7
g7
g7
g7
I4
tp1644
a(g7
S'D4'
p1645
S'G#4'
p1646
S'E3'
p1647
I1
tp1648
a(g7
g7
g7
g7
I2
tp1649
a(g7
g7
g7
g7
I3
tp1650
a(g7
g7
g7
g7
I4
tp1651
a(S'B-3'
p1652
g7
g7
g7
I1
tp1653
a(g7
g7
g7
g7
I2
tp1654
a(S'G#3'
p1655
g7
g7
g7
I3
tp1656
a(g7
g7
g7
g7
I4
tp1657
a(S'B-3'
p1658
S'E-4'
p1659
g7
S'E-3'
p1660
I1
tp1661
a(g7
g7
g7
g7
I2
tp1662
a(g7
g7
g7
g7
I3
tp1663
a(g7
g7
g7
g7
I4
tp1664
a(S'B3'
p1665
g7
g7
g7
I1
tp1666
a(g7
g7
g7
g7
I2
tp1667
a(g7
g7
g7
g7
I3
tp1668
a(g7
g7
g7
g7
I4
tp1669
a(S'B-3'
p1670
S'C#4'
p1671
g7
S'E-2'
p1672
I1
tp1673
a(g7
g7
g7
g7
I2
tp1674
a(g7
g7
g7
g7
I3
tp1675
a(g7
g7
g7
g7
I4
tp1676
a(g7
g7
S'G4'
p1677
g7
I1
tp1678
a(g7
g7
g7
g7
I2
tp1679
a(g7
g7
g7
g7
I3
tp1680
a(g7
g7
g7
g7
I4
tp1681
a(S'G#3'
p1682
S'B3'
p1683
S'G#4'
p1684
S'G#2'
p1685
I1
tp1686
a(g7
g7
g7
g7
I2
tp1687
a(g7
g7
g7
g7
I3
tp1688
a(g7
g7
g7
g7
I4
tp1689
a(g7
g7
g7
g7
I1
tp1690
a(g7
g7
g7
g7
I2
tp1691
a(g7
g7
g7
g7
I3
tp1692
a(g7
g7
g7
g7
I4
tp1693
a(g4
S'B3'
p1694
g4
g4
I1
tp1695
a(g7
g7
g7
g7
I2
tp1696
a(g7
g7
g7
g7
I3
tp1697
a(g7
g7
g7
g7
I4
tp1698
a(g7
g7
S'B4'
p1699
g7
I1
tp1700
a(g7
g7
g7
g7
I2
tp1701
a(g7
g7
g7
g7
I3
tp1702
a(g7
g7
g7
g7
I4
tp1703
a(S'E3'
p1704
S'C#4'
p1705
S'G#4'
p1706
g7
I1
tp1707
a(g7
g7
g7
g7
I2
tp1708
a(g7
g7
g7
g7
I3
tp1709
a(g7
g7
g7
g7
I4
tp1710
a(g7
g7
S'E4'
p1711
g7
I1
tp1712
a(g7
g7
g7
g7
I2
tp1713
a(g7
g7
g7
g7
I3
tp1714
a(g7
g7
g7
g7
I4
tp1715
a(g7
S'E4'
p1716
S'F#4'
p1717
g7
I1
tp1718
a(g7
g7
g7
g7
I2
tp1719
a(g7
g7
g7
g7
I3
tp1720
a(g7
g7
g7
g7
I4
tp1721
a(g7
g7
S'G#4'
p1722
g7
I1
tp1723
a(g7
g7
g7
g7
I2
tp1724
a(g7
g7
g7
g7
I3
tp1725
a(g7
g7
g7
g7
I4
tp1726
a(S'F#3'
p1727
S'E-4'
p1728
S'A4'
p1729
g7
I1
tp1730
a(g7
g7
g7
g7
I2
tp1731
a(g7
g7
g7
g7
I3
tp1732
a(g7
g7
g7
g7
I4
tp1733
a(g7
g7
S'B4'
p1734
g7
I1
tp1735
a(g7
g7
g7
g7
I2
tp1736
a(g7
g7
g7
g7
I3
tp1737
a(g7
g7
g7
g7
I4
tp1738
a(S'A3'
p1739
S'C#4'
p1740
S'C#5'
p1741
g7
I1
tp1742
a(g7
g7
g7
g7
I2
tp1743
a(g7
g7
g7
g7
I3
tp1744
a(g7
g7
g7
g7
I4
tp1745
a(g7
g7
S'E-5'
p1746
g7
I1
tp1747
a(g7
g7
g7
g7
I2
tp1748
a(g7
g7
g7
g7
I3
tp1749
a(g7
g7
g7
g7
I4
tp1750
a(S'G#3'
p1751
S'B3'
p1752
S'E5'
p1753
S'B2'
p1754
I1
tp1755
a(g7
g7
g7
g7
I2
tp1756
a(g7
g7
S'B4'
p1757
g7
I3
tp1758
a(g7
g7
g7
g7
I4
tp1759
a(g7
g7
S'E5'
p1760
g7
I1
tp1761
a(g7
g7
g7
g7
I2
tp1762
a(g7
g7
g7
g7
I3
tp1763
a(g7
g7
g7
g7
I4
tp1764
a(S'F#3'
p1765
S'B4'
p1766
g7
g7
I1
tp1767
a(g7
g7
g7
g7
I2
tp1768
a(g7
g7
g7
g7
I3
tp1769
a(g7
g7
g7
g7
I4
tp1770
a(g7
g7
S'E-5'
p1771
g7
I1
tp1772
a(g7
g7
g7
g7
I2
tp1773
a(g7
g7
g7
g7
I3
tp1774
a(g7
g7
g7
g7
I4
tp1775
a(S'E3'
p1776
S'G#4'
p1777
g7
S'C#3'
p1778
I1
tp1779
a(g7
g7
g7
g7
I2
tp1780
a(g7
g7
g7
g7
I3
tp1781
a(g7
g7
g7
g7
I4
tp1782
a(g7
S'E4'
p1783
S'C#5'
p1784
g7
I1
tp1785
a(g7
g7
g7
g7
I2
tp1786
a(g7
g7
S'B4'
p1787
g7
I3
tp1788
a(g7
g7
g7
g7
I4
tp1789
a(g4
S'G#4'
p1790
S'C#5'
p1791
S'E3'
p1792
I1
tp1793
a(g7
g7
g7
g7
I2
tp1794
a(g7
g7
g7
g7
I3
tp1795
a(g7
g7
g7
g7
I4
tp1796
a(g7
S'B-4'
p1797
g7
g7
I1
tp1798
a(g7
g7
g7
g7
I2
tp1799
a(g7
g7
g7
g7
I3
tp1800
a(g7
g7
g7
g7
I4
tp1801
a(g7
S'B4'
p1802
g4
S'E-3'
p1803
I1
tp1804
a(g7
g7
g7
g7
I2
tp1805
a(g7
S'F#4'
p1806
g7
g7
I3
tp1807
a(g7
g7
g7
g7
I4
tp1808
a(g7
S'B4'
p1809
g7
g7
I1
tp1810
a(g7
g7
g7
g7
I2
tp1811
a(g7
g7
g7
g7
I3
tp1812
a(g7
g7
g7
g7
I4
tp1813
a(g7
g7
S'E5'
p1814
S'C#3'
p1815
I1
tp1816
a(g7
g7
g7
g7
I2
tp1817
a(g7
g7
g7
g7
I3
tp1818
a(g7
g7
g7
g7
I4
tp1819
a(S'E3'
p1820
S'A4'
p1821
g7
g7
I1
tp1822
a(g7
g7
g7
g7
I2
tp1823
a(g7
g7
g7
g7
I3
tp1824
a(g7
g7
g7
g7
I4
tp1825
a(S'E-3'
p1826
g7
S'F#5'
p1827
S'B2'
p1828
I1
tp1829
a(g7
g7
g7
g7
I2
tp1830
a(g7
g7
g7
g7
I3
tp1831
a(g7
g7
g7
g7
I4
tp1832
a(S'B3'
p1833
S'E-4'
p1834
g7
g7
I1
tp1835
a(g7
g7
g7
g7
I2
tp1836
a(g7
g7
g7
g7
I3
tp1837
a(g7
g7
g7
g7
I4
tp1838
a(S'C#4'
p1839
S'E4'
p1840
S'A5'
p1841
g4
I1
tp1842
a(g7
g7
g7
g7
I2
tp1843
a(g7
g7
g7
g7
I3
tp1844
a(g7
g7
g7
g7
I4
tp1845
a(S'E-4'
p1846
S'F#4'
p1847
g7
g7
I1
tp1848
a(g7
g7
g7
g7
I2
tp1849
a(g7
g7
g7
g7
I3
tp1850
a(g7
g7
g7
g7
I4
tp1851
a(S'E4'
p1852
S'G#4'
p1853
S'G#5'
p1854
g7
I1
tp1855
a(g7
g7
g7
g7
I2
tp1856
a(S'B3'
p1857
g7
g7
g7
I3
tp1858
a(g7
g7
g7
g7
I4
tp1859
a(S'E4'
p1860
S'C#5'
p1861
g7
g7
I1
tp1862
a(g7
g7
g7
g7
I2
tp1863
a(g7
g7
g7
g7
I3
tp1864
a(g7
g7
g7
g7
I4
tp1865
a(g7
S'A4'
p1866
S'F#5'
p1867
g7
I1
tp1868
a(g7
g7
g7
g7
I2
tp1869
a(g7
g7
g7
g7
I3
tp1870
a(g7
g7
g7
g7
I4
tp1871
a(S'E-4'
p1872
S'B4'
p1873
g7
g7
I1
tp1874
a(g7
g7
g7
g7
I2
tp1875
a(g7
g7
g7
g7
I3
tp1876
a(g7
g7
g7
g7
I4
tp1877
a(g7
S'G#4'
p1878
S'E5'
p1879
g7
I1
tp1880
a(g7
g7
g7
g7
I2
tp1881
a(S'G#3'
p1882
g7
g7
g7
I3
tp1883
a(g7
g7
g7
g7
I4
tp1884
a(S'C#4'
p1885
S'A4'
p1886
g7
g7
I1
tp1887
a(g7
g7
g7
g7
I2
tp1888
a(g7
g7
g7
g7
I3
tp1889
a(g7
g7
g7
g7
I4
tp1890
a(g7
S'F#4'
p1891
S'E-5'
p1892
g7
I1
tp1893
a(g7
g7
g7
g7
I2
tp1894
a(g7
g7
g7
g7
I3
tp1895
a(g7
g7
g7
g7
I4
tp1896
a(S'B3'
p1897
S'G#4'
p1898
g7
g7
I1
tp1899
a(g7
g7
g7
g7
I2
tp1900
a(g7
g7
g7
g7
I3
tp1901
a(g7
g7
g7
g7
I4
tp1902
a(g7
S'E4'
p1903
S'C#5'
p1904
g7
I1
tp1905
a(g7
g7
g7
g7
I2
tp1906
a(S'E3'
p1907
g7
g7
g7
I3
tp1908
a(g7
g7
g7
g7
I4
tp1909
a(S'A3'
p1910
S'F#4'
p1911
g7
g7
I1
tp1912
a(g7
g7
g7
g7
I2
tp1913
a(g7
g7
g7
g7
I3
tp1914
a(g7
g7
g7
g7
I4
tp1915
a(g7
S'E-4'
p1916
S'B4'
p1917
g7
I1
tp1918
a(g7
g7
g7
g7
I2
tp1919
a(g7
g7
g7
g7
I3
tp1920
a(g7
g7
g7
g7
I4
tp1921
a(S'G#3'
p1922
S'E4'
p1923
g7
g7
I1
tp1924
a(g7
g7
g7
g7
I2
tp1925
a(g7
g7
g7
g7
I3
tp1926
a(g7
g7
g7
g7
I4
tp1927
a(S'F#3'
p1928
g7
g7
S'B2'
p1929
I1
tp1930
a(g7
g7
g7
g7
I2
tp1931
a(g7
g7
g7
g7
I3
tp1932
a(g7
g7
g7
g7
I4
tp1933
a(g7
S'E-4'
p1934
S'C#5'
p1935
g7
I1
tp1936
a(g7
g7
g7
g7
I2
tp1937
a(g7
S'C#4'
p1938
g7
g7
I3
tp1939
a(g7
g7
g7
g7
I4
tp1940
a(g7
S'E-4'
p1941
S'B4'
p1942
g7
I1
tp1943
a(g7
g7
g7
g7
I2
tp1944
a(g7
g7
g7
g7
I3
tp1945
a(g7
g7
g7
g7
I4
tp1946
a(g7
g7
S'A4'
p1947
g7
I1
tp1948
a(g7
g7
g7
g7
I2
tp1949
a(g7
g7
g7
g7
I3
tp1950
a(g7
g7
g7
g7
I4
tp1951
a(S'E3'
p1952
g4
S'G#4'
p1953
S'C#3'
p1954
I1
tp1955
a(g7
g7
g7
g7
I2
tp1956
a(g7
g7
g7
g7
I3
tp1957
a(g7
g7
g7
g7
I4
tp1958
a(S'C#4'
p1959
S'E4'
p1960
g7
g7
I1
tp1961
a(g7
g7
g7
g7
I2
tp1962
a(g7
S'F#4'
p1963
g7
g7
I3
tp1964
a(g7
g7
g7
g7
I4
tp1965
a(g7
S'G#4'
p1966
g4
S'E3'
p1967
I1
tp1968
a(g7
g7
g7
g7
I2
tp1969
a(g7
g7
g7
g7
I3
tp1970
a(g7
g7
g7
g7
I4
tp1971
a(S'F#3'
p1972
S'B-4'
p1973
g7
g7
I1
tp1974
a(g7
g7
g7
g7
I2
tp1975
a(g7
g7
g7
g7
I3
tp1976
a(g7
g7
g7
g7
I4
tp1977
a(g7
S'B4'
p1978
g7
S'E-3'
p1979
I1
tp1980
a(g7
g7
g7
g7
I2
tp1981
a(g7
S'F#4'
p1982
g7
g7
I3
tp1983
a(g7
g7
g7
g7
I4
tp1984
a(S'F#3'
p1985
S'B4'
p1986
g7
g7
I1
tp1987
a(g7
g7
g7
g7
I2
tp1988
a(g7
g7
g7
g7
I3
tp1989
a(g7
g7
g7
g7
I4
tp1990
a(S'G#3'
p1991
g7
S'E5'
p1992
S'C#3'
p1993
I1
tp1994
a(g7
g7
g7
g7
I2
tp1995
a(g7
g7
g7
g7
I3
tp1996
a(g7
g7
g7
g7
I4
tp1997
a(S'A3'
p1998
S'A4'
p1999
g7
g7
I1
tp2000
a(g7
g7
g7
g7
I2
tp2001
a(g7
g7
g7
g7
I3
tp2002
a(g7
g7
g7
g7
I4
tp2003
a(S'B3'
p2004
g7
S'E-5'
p2005
S'B2'
p2006
I1
tp2007
a(g7
g7
g7
g7
I2
tp2008
a(g7
S'E-4'
p2009
g7
g7
I3
tp2010
a(g7
g7
g7
g7
I4
tp2011
a(S'E-3'
p2012
S'G#4'
p2013
g7
g7
I1
tp2014
a(g7
g7
g7
g7
I2
tp2015
a(g7
g7
g7
g7
I3
tp2016
a(g7
g7
g7
g7
I4
tp2017
a(S'E3'
p2018
g7
S'C#5'
p2019
S'A2'
p2020
I1
tp2021
a(g7
g7
g7
g7
I2
tp2022
a(g7
g7
g7
g7
I3
tp2023
a(g7
g7
g7
g7
I4
tp2024
a(S'F#3'
p2025
S'F#4'
p2026
g7
g7
I1
tp2027
a(g7
g7
g7
g7
I2
tp2028
a(g7
g7
g7
g7
I3
tp2029
a(g7
g7
g7
g7
I4
tp2030
a(S'G#3'
p2031
g7
S'B4'
p2032
S'G#2'
p2033
I1
tp2034
a(g7
g7
g7
g7
I2
tp2035
a(g7
S'B3'
p2036
g7
g7
I3
tp2037
a(g7
g7
g7
g7
I4
tp2038
a(g7
S'E4'
p2039
g7
g7
I1
tp2040
a(g7
g7
g7
g7
I2
tp2041
a(S'E3'
p2042
g7
g7
g7
I3
tp2043
a(g7
g7
g7
g7
I4
tp2044
a(S'A3'
p2045
g7
S'A4'
p2046
S'F#2'
p2047
I1
tp2048
a(g7
g7
g7
g7
I2
tp2049
a(g7
g7
g7
g7
I3
tp2050
a(g7
g7
g7
g7
I4
tp2051
a(g7
S'E-4'
p2052
g7
g7
I1
tp2053
a(g7
g7
g7
g7
I2
tp2054
a(g7
g7
g7
g7
I3
tp2055
a(g7
g7
g7
g7
I4
tp2056
a(S'B3'
p2057
S'E4'
p2058
S'G#4'
p2059
S'E2'
p2060
I1
tp2061
a(g7
g7
g7
g7
I2
tp2062
a(g7
g7
S'F#4'
p2063
g7
I3
tp2064
a(g7
g7
g7
g7
I4
tp2065
a(g7
g7
S'G#4'
p2066
S'F#2'
p2067
I1
tp2068
a(g7
g7
g7
g7
I2
tp2069
a(g7
g7
S'A4'
p2070
g7
I3
tp2071
a(g7
g7
g7
g7
I4
tp2072
a(g4
g4
S'B4'
p2073
S'G#2'
p2074
I1
tp2075
a(g7
g7
g7
g7
I2
tp2076
a(g7
g7
g7
g7
I3
tp2077
a(g7
g7
g7
g7
I4
tp2078
a(S'C#4'
p2079
S'E4'
p2080
S'A4'
p2081
S'A2'
p2082
I1
tp2083
a(g7
g7
g7
g7
I2
tp2084
a(g7
g7
g7
g7
I3
tp2085
a(g7
g7
g7
g7
I4
tp2086
a(S'B3'
p2087
S'E4'
p2088
S'G#4'
p2089
S'B2'
p2090
I1
tp2091
a(g7
g7
g7
g7
I2
tp2092
a(g7
g7
g7
g7
I3
tp2093
a(g7
g7
g7
g7
I4
tp2094
a(g7
g7
g7
g7
I1
tp2095
a(g7
g7
g7
g7
I2
tp2096
a(g7
g7
g7
g7
I3
tp2097
a(g7
g7
g7
g7
I4
tp2098
a(g7
S'E-4'
p2099
S'F#4'
p2100
g7
I1
tp2101
a(g7
g7
g7
g7
I2
tp2102
a(g7
g7
g7
g7
I3
tp2103
a(g7
g7
g7
g7
I4
tp2104
a(S'A3'
p2105
g7
g7
g7
I1
tp2106
a(g7
g7
g7
g7
I2
tp2107
a(g7
g7
g7
g7
I3
tp2108
a(g7
g7
g7
g7
I4
tp2109
a(S'G#3'
p2110
S'E4'
p2111
S'E4'
p2112
S'E2'
p2113
I1
tp2114
a(g7
g7
g7
g7
I2
tp2115
a(g7
g7
g7
g7
I3
tp2116
a(g7
g7
g7
g7
I4
tp2117
a(g7
g7
g7
g7
I1
tp2118
a(g7
g7
g7
g7
I2
tp2119
a(g7
g7
g7
g7
I3
tp2120
a(g7
g7
g7
g7
I4
tp2121
a(g7
g7
g7
g7
I1
tp2122
a(g7
g7
g7
g7
I2
tp2123
a(g7
g7
g7
g7
I3
tp2124
a(g7
g7
g7
g7
I4
tp2125
a(g7
g7
g7
g7
I1
tp2126
a(g7
g7
g7
g7
I2
tp2127
a(g7
g7
g7
g7
I3
tp2128
a(g7
g7
g7
g7
I4
tp2129
a(S'fin'
p2130
g2130
g2130
g2130
g2130
tp2131
aa(lp2132
(g4
g4
g4
S'E-3'
p2133
I1
tp2134
a(g7
g7
g7
g7
I2
tp2135
a(g7
g7
g7
g7
I3
tp2136
a(g7
g7
g7
g7
I4
tp2137
a(g7
g7
g7
g7
I1
tp2138
a(g7
g7
g7
g7
I2
tp2139
a(g7
g7
g7
g7
I3
tp2140
a(g7
g7
g7
g7
I4
tp2141
a(g7
g7
g7
g7
I1
tp2142
a(g7
g7
g7
g7
I2
tp2143
a(g7
g7
g7
g7
I3
tp2144
a(g7
g7
g7
g7
I4
tp2145
a(g7
g7
g7
g7
I1
tp2146
a(g7
g7
g7
g7
I2
tp2147
a(g7
g7
g7
g7
I3
tp2148
a(g7
g7
g7
g7
I4
tp2149
a(g7
g7
g7
S'B-3'
p2150
I1
tp2151
a(g7
g7
g7
g7
I2
tp2152
a(g7
g7
g7
g7
I3
tp2153
a(g7
g7
g7
g7
I4
tp2154
a(g7
g7
g7
g7
I1
tp2155
a(g7
g7
g7
g7
I2
tp2156
a(g7
g7
g7
g7
I3
tp2157
a(g7
g7
g7
g7
I4
tp2158
a(g7
g7
g7
g4
I1
tp2159
a(g7
g7
g7
g7
I2
tp2160
a(g7
g7
g7
g7
I3
tp2161
a(g7
g7
g7
g7
I4
tp2162
a(g7
g7
g7
S'G#3'
p2163
I1
tp2164
a(g7
g7
g7
g7
I2
tp2165
a(g7
g7
g7
g7
I3
tp2166
a(g7
g7
g7
g7
I4
tp2167
a(g7
g7
g7
S'G3'
p2168
I1
tp2169
a(g7
g7
g7
g7
I2
tp2170
a(g7
g7
g7
g7
I3
tp2171
a(g7
g7
g7
g7
I4
tp2172
a(g7
g7
g7
S'C4'
p2173
I1
tp2174
a(g7
g7
g7
g7
I2
tp2175
a(g7
g7
g7
g7
I3
tp2176
a(g7
g7
g7
g7
I4
tp2177
a(g7
g7
g7
g7
I1
tp2178
a(g7
g7
g7
g7
I2
tp2179
a(g7
g7
g7
g7
I3
tp2180
a(g7
g7
g7
g7
I4
tp2181
a(g7
g7
g7
S'B-3'
p2182
I1
tp2183
a(g7
g7
g7
g7
I2
tp2184
a(g7
g7
g7
g7
I3
tp2185
a(g7
g7
g7
g7
I4
tp2186
a(g7
g7
g7
S'G#3'
p2187
I1
tp2188
a(g7
g7
g7
g7
I2
tp2189
a(g7
g7
g7
g7
I3
tp2190
a(g7
g7
g7
g7
I4
tp2191
a(g7
g7
g7
S'G#3'
p2192
I1
tp2193
a(g7
g7
g7
g7
I2
tp2194
a(g7
g7
g7
S'G3'
p2195
I3
tp2196
a(g7
g7
g7
g7
I4
tp2197
a(g7
g7
g7
S'G#3'
p2198
I1
tp2199
a(g7
g7
g7
g7
I2
tp2200
a(g7
g7
g7
g7
I3
tp2201
a(g7
g7
g7
g7
I4
tp2202
a(g7
g7
g7
S'C4'
p2203
I1
tp2204
a(g7
g7
g7
g7
I2
tp2205
a(g7
g7
g7
g7
I3
tp2206
a(g7
g7
g7
g7
I4
tp2207
a(g7
g7
g7
S'F3'
p2208
I1
tp2209
a(g7
g7
g7
g7
I2
tp2210
a(g7
g7
g7
g7
I3
tp2211
a(g7
g7
g7
g7
I4
tp2212
a(g7
g7
g7
S'B-3'
p2213
I1
tp2214
a(g7
g7
g7
g7
I2
tp2215
a(g7
g7
g7
g7
I3
tp2216
a(g7
g7
g7
g7
I4
tp2217
a(g7
g7
g7
g7
I1
tp2218
a(g7
g7
g7
g7
I2
tp2219
a(g7
g7
g7
g7
I3
tp2220
a(g7
g7
g7
g7
I4
tp2221
a(g7
g7
g7
S'G#3'
p2222
I1
tp2223
a(g7
g7
g7
g7
I2
tp2224
a(g7
g7
g7
g7
I3
tp2225
a(g7
g7
g7
g7
I4
tp2226
a(g7
g7
g7
S'G3'
p2227
I1
tp2228
a(g7
g7
g7
g7
I2
tp2229
a(g7
g7
g7
g7
I3
tp2230
a(g7
g7
g7
g7
I4
tp2231
a(g7
g7
g7
S'G3'
p2232
I1
tp2233
a(g7
g7
g7
g7
I2
tp2234
a(g7
g7
g7
S'F3'
p2235
I3
tp2236
a(g7
g7
g7
g7
I4
tp2237
a(g7
g7
g7
S'G3'
p2238
I1
tp2239
a(g7
g7
g7
g7
I2
tp2240
a(g7
g7
g7
g7
I3
tp2241
a(g7
g7
g7
g7
I4
tp2242
a(g7
g7
g7
S'B-3'
p2243
I1
tp2244
a(g7
g7
g7
g7
I2
tp2245
a(g7
g7
g7
g7
I3
tp2246
a(g7
g7
g7
g7
I4
tp2247
a(S'B-3'
p2248
g7
g7
S'E-3'
p2249
I1
tp2250
a(g7
g7
g7
g7
I2
tp2251
a(g7
g7
g7
g7
I3
tp2252
a(g7
g7
g7
g7
I4
tp2253
a(g7
g7
g7
S'E-3'
p2254
I1
tp2255
a(g7
g7
g7
g7
I2
tp2256
a(g7
g7
g7
S'D3'
p2257
I3
tp2258
a(g7
g7
g7
g7
I4
tp2259
a(g7
g7
g7
S'E-3'
p2260
I1
tp2261
a(g7
g7
g7
g7
I2
tp2262
a(g7
g7
g7
g7
I3
tp2263
a(g7
g7
g7
g7
I4
tp2264
a(g7
g7
g7
S'G3'
p2265
I1
tp2266
a(g7
g7
g7
g7
I2
tp2267
a(g7
g7
g7
g7
I3
tp2268
a(g7
g7
g7
g7
I4
tp2269
a(S'E-4'
p2270
g7
g7
S'C3'
p2271
I1
tp2272
a(g7
g7
g7
g7
I2
tp2273
a(g7
g7
g7
g7
I3
tp2274
a(g7
g7
g7
g7
I4
tp2275
a(g7
g7
g7
S'D3'
p2276
I1
tp2277
a(g7
g7
g7
g7
I2
tp2278
a(g7
g7
g7
S'E-3'
p2279
I3
tp2280
a(g7
g7
g7
g7
I4
tp2281
a(g4
g7
g7
S'F3'
p2282
I1
tp2283
a(g7
g7
g7
g7
I2
tp2284
a(g7
g7
g7
g7
I3
tp2285
a(g7
g7
g7
g7
I4
tp2286
a(S'E-4'
p2287
g7
g7
g7
I1
tp2288
a(g7
g7
g7
g7
I2
tp2289
a(g7
g7
g7
g7
I3
tp2290
a(g7
g7
g7
g7
I4
tp2291
a(S'D4'
p2292
g7
g7
S'B-2'
p2293
I1
tp2294
a(g7
g7
g7
g7
I2
tp2295
a(g7
g7
g7
g7
I3
tp2296
a(g7
g7
g7
g7
I4
tp2297
a(S'G4'
p2298
g7
g7
g7
I1
tp2299
a(g7
g7
g7
g7
I2
tp2300
a(g7
g7
g7
g7
I3
tp2301
a(g7
g7
g7
g7
I4
tp2302
a(g7
g7
g7
S'B-3'
p2303
I1
tp2304
a(g7
g7
g7
g7
I2
tp2305
a(g7
g7
g7
g7
I3
tp2306
a(g7
g7
g7
g7
I4
tp2307
a(S'F4'
p2308
g7
g7
g7
I1
tp2309
a(g7
g7
g7
g7
I2
tp2310
a(g7
g7
g7
g7
I3
tp2311
a(g7
g7
g7
g7
I4
tp2312
a(S'E-4'
p2313
g7
g7
g7
I1
tp2314
a(g7
g7
g7
g7
I2
tp2315
a(g7
g7
g7
g7
I3
tp2316
a(g7
g7
g7
g7
I4
tp2317
a(S'E-4'
p2318
g7
g7
g7
I1
tp2319
a(g7
g7
g7
g7
I2
tp2320
a(S'D4'
p2321
g7
g7
g7
I3
tp2322
a(g7
g7
g7
g7
I4
tp2323
a(S'E-4'
p2324
g7
g7
S'A3'
p2325
I1
tp2326
a(g7
g7
g7
g7
I2
tp2327
a(g7
g7
g7
g7
I3
tp2328
a(g7
g7
g7
g7
I4
tp2329
a(S'G4'
p2330
g7
g7
S'G3'
p2331
I1
tp2332
a(g7
g7
g7
g7
I2
tp2333
a(g7
g7
g7
g7
I3
tp2334
a(g7
g7
g7
g7
I4
tp2335
a(S'C4'
p2336
g7
g7
S'A3'
p2337
I1
tp2338
a(g7
g7
g7
g7
I2
tp2339
a(g7
g7
g7
g7
I3
tp2340
a(g7
g7
g7
g7
I4
tp2341
a(S'F4'
p2342
g7
g7
g7
I1
tp2343
a(g7
g7
g7
g7
I2
tp2344
a(g7
g7
g7
S'B-3'
p2345
I3
tp2346
a(g7
g7
g7
S'A3'
p2347
I4
tp2348
a(g7
g7
g7
S'G3'
p2349
I1
tp2350
a(g7
g7
g7
g7
I2
tp2351
a(g7
g7
g7
g7
I3
tp2352
a(g7
g7
g7
g7
I4
tp2353
a(S'E-4'
p2354
g7
g7
S'A3'
p2355
I1
tp2356
a(g7
g7
g7
g7
I2
tp2357
a(g7
g7
g7
g7
I3
tp2358
a(g7
g7
g7
g7
I4
tp2359
a(S'D4'
p2360
g7
g7
S'B-3'
p2361
I1
tp2362
a(g7
g7
g7
g7
I2
tp2363
a(g7
g7
g7
g7
I3
tp2364
a(g7
g7
g7
g7
I4
tp2365
a(S'D4'
p2366
g7
g7
S'B-2'
p2367
I1
tp2368
a(g7
g7
g7
g7
I2
tp2369
a(S'C4'
p2370
g7
g7
g7
I3
tp2371
a(g7
g7
g7
g7
I4
tp2372
a(S'D4'
p2373
g7
g7
S'B-3'
p2374
I1
tp2375
a(g7
g7
g7
g7
I2
tp2376
a(g7
g7
g7
g7
I3
tp2377
a(g7
g7
g7
g7
I4
tp2378
a(S'F4'
p2379
g7
g7
S'A3'
p2380
I1
tp2381
a(g7
g7
g7
g7
I2
tp2382
a(g7
g7
g7
g7
I3
tp2383
a(g7
g7
g7
g7
I4
tp2384
a(S'B-3'
p2385
g7
g7
S'G3'
p2386
I1
tp2387
a(g7
g7
g7
g7
I2
tp2388
a(g7
g7
g7
g7
I3
tp2389
a(g7
g7
g7
g7
I4
tp2390
a(S'B-3'
p2391
g7
g7
S'G2'
p2392
I1
tp2393
a(g7
g7
g7
g7
I2
tp2394
a(S'G#3'
p2395
g7
g7
g7
I3
tp2396
a(g7
g7
g7
g7
I4
tp2397
a(S'B-3'
p2398
g7
g7
S'G3'
p2399
I1
tp2400
a(g7
g7
g7
g7
I2
tp2401
a(g7
g7
g7
g7
I3
tp2402
a(g7
g7
g7
g7
I4
tp2403
a(S'D4'
p2404
g7
g7
S'F3'
p2405
I1
tp2406
a(g7
g7
g7
g7
I2
tp2407
a(g7
g7
g7
g7
I3
tp2408
a(g7
g7
g7
g7
I4
tp2409
a(S'G3'
p2410
g7
S'E-4'
p2411
S'E-3'
p2412
I1
tp2413
a(g7
g7
g7
g7
I2
tp2414
a(g7
g7
g7
g7
I3
tp2415
a(g7
g7
g7
g7
I4
tp2416
a(S'G#3'
p2417
g7
g7
S'F3'
p2418
I1
tp2419
a(g7
g7
g7
g7
I2
tp2420
a(S'B-3'
p2421
g7
g7
S'G3'
p2422
I3
tp2423
a(g7
g7
g7
g7
I4
tp2424
a(S'C4'
p2425
g7
g7
S'G#3'
p2426
I1
tp2427
a(g7
g7
g7
g7
I2
tp2428
a(g7
g7
g7
g7
I3
tp2429
a(g7
g7
g7
g7
I4
tp2430
a(S'B-3'
p2431
g7
g7
g7
I1
tp2432
a(g7
g7
g7
g7
I2
tp2433
a(S'C4'
p2434
g7
g7
g7
I3
tp2435
a(g7
g7
g7
g7
I4
tp2436
a(S'D4'
p2437
g7
S'B-4'
p2438
g7
I1
tp2439
a(g7
g7
g7
g7
I2
tp2440
a(g7
g7
g7
g7
I3
tp2441
a(g7
g7
g7
g7
I4
tp2442
a(S'F4'
p2443
g7
g7
S'G3'
p2444
I1
tp2445
a(g7
g7
g7
g7
I2
tp2446
a(g7
g7
g7
S'F3'
p2447
I3
tp2448
a(g7
g7
g7
g7
I4
tp2449
a(S'B-3'
p2450
g7
g4
S'G3'
p2451
I1
tp2452
a(g7
g7
g7
g7
I2
tp2453
a(g7
g7
g7
g7
I3
tp2454
a(g7
g7
g7
g7
I4
tp2455
a(S'D4'
p2456
g7
S'G#4'
p2457
S'B-3'
p2458
I1
tp2459
a(g7
g7
g7
g7
I2
tp2460
a(g7
g7
g7
g7
I3
tp2461
a(g7
g7
g7
g7
I4
tp2462
a(S'E-4'
p2463
g7
S'G4'
p2464
S'E-3'
p2465
I1
tp2466
a(g7
g7
g7
g7
I2
tp2467
a(g7
g7
g7
g7
I3
tp2468
a(g7
g7
g7
g7
I4
tp2469
a(g7
g7
S'C5'
p2470
S'G#3'
p2471
I1
tp2472
a(g7
g7
g7
g7
I2
tp2473
a(g7
g7
g7
S'G3'
p2474
I3
tp2475
a(g7
g7
g7
g7
I4
tp2476
a(g7
g7
g7
S'G#3'
p2477
I1
tp2478
a(g7
g7
g7
g7
I2
tp2479
a(g7
g7
g7
g7
I3
tp2480
a(g7
g7
g7
g7
I4
tp2481
a(g7
g7
S'B-4'
p2482
S'C4'
p2483
I1
tp2484
a(g7
g7
g7
g7
I2
tp2485
a(g7
g7
g7
g7
I3
tp2486
a(g7
g7
g7
g7
I4
tp2487
a(g7
g7
S'G#4'
p2488
S'F3'
p2489
I1
tp2490
a(g7
g7
g7
g7
I2
tp2491
a(g7
g7
g7
g7
I3
tp2492
a(g7
g7
g7
g7
I4
tp2493
a(g7
g7
S'G#4'
p2494
g7
I1
tp2495
a(g7
g7
g7
g7
I2
tp2496
a(g7
g7
S'G4'
p2497
g7
I3
tp2498
a(g7
g7
g7
g7
I4
tp2499
a(S'D4'
p2500
g7
S'G#4'
p2501
g7
I1
tp2502
a(g7
g7
g7
g7
I2
tp2503
a(g7
g7
g7
g7
I3
tp2504
a(g7
g7
g7
g7
I4
tp2505
a(S'C4'
p2506
g7
S'C5'
p2507
S'G3'
p2508
I1
tp2509
a(g7
g7
g7
g7
I2
tp2510
a(g7
g7
g7
S'G#3'
p2511
I3
tp2512
a(g7
g7
g7
g7
I4
tp2513
a(S'D4'
p2514
g7
S'F4'
p2515
S'B-3'
p2516
I1
tp2517
a(g7
g7
g7
g7
I2
tp2518
a(g7
g7
g7
g7
I3
tp2519
a(g7
g7
g7
g7
I4
tp2520
a(g7
g7
S'B-4'
p2521
g7
I1
tp2522
a(g7
g7
g7
g7
I2
tp2523
a(S'E-4'
p2524
g7
g7
g7
I3
tp2525
a(S'D4'
p2526
g7
g7
g7
I4
tp2527
a(S'C4'
p2528
g7
g7
g7
I1
tp2529
a(g7
g7
g7
g7
I2
tp2530
a(g7
g7
g7
g7
I3
tp2531
a(g7
g7
g7
g7
I4
tp2532
a(S'D4'
p2533
g7
S'G#4'
p2534
g7
I1
tp2535
a(g7
g7
g7
g7
I2
tp2536
a(g7
g7
g7
g7
I3
tp2537
a(g7
g7
g7
g7
I4
tp2538
a(S'E-4'
p2539
g7
S'G4'
p2540
S'E-3'
p2541
I1
tp2542
a(g7
g7
g7
g7
I2
tp2543
a(g7
g7
g7
g7
I3
tp2544
a(g7
g7
g7
g7
I4
tp2545
a(S'B-3'
p2546
g7
S'G4'
p2547
g7
I1
tp2548
a(g7
g7
g7
g7
I2
tp2549
a(S'G#3'
p2550
g7
S'F4'
p2551
g7
I3
tp2552
a(g7
g7
g7
g7
I4
tp2553
a(S'B-3'
p2554
g7
S'G4'
p2555
g7
I1
tp2556
a(g7
g7
g7
g7
I2
tp2557
a(g7
g7
g7
g7
I3
tp2558
a(g7
g7
g7
g7
I4
tp2559
a(g7
g7
S'B-4'
p2560
S'D3'
p2561
I1
tp2562
a(g7
g7
g7
g7
I2
tp2563
a(g7
g7
g7
g7
I3
tp2564
a(g7
g7
g7
g7
I4
tp2565
a(g7
g7
S'E-4'
p2566
S'C3'
p2567
I1
tp2568
a(g7
g7
g7
g7
I2
tp2569
a(g7
g7
g7
g7
I3
tp2570
a(g7
g7
g7
g7
I4
tp2571
a(S'G#3'
p2572
g7
S'F4'
p2573
g7
I1
tp2574
a(g7
g7
g7
g7
I2
tp2575
a(S'G3'
p2576
g7
S'E-4'
p2577
g7
I3
tp2578
a(g7
g7
g7
g7
I4
tp2579
a(S'G#3'
p2580
g7
S'F4'
p2581
g4
I1
tp2582
a(g7
g7
g7
g7
I2
tp2583
a(g7
g7
g7
g7
I3
tp2584
a(g7
g7
g7
g7
I4
tp2585
a(g7
g7
S'G#4'
p2586
S'F3'
p2587
I1
tp2588
a(g7
g7
g7
g7
I2
tp2589
a(g7
g7
g7
g7
I3
tp2590
a(g7
g7
g7
g7
I4
tp2591
a(g7
S'B-4'
p2592
S'D4'
p2593
S'B-2'
p2594
I1
tp2595
a(g7
g7
g7
g7
I2
tp2596
a(g7
g7
g7
g7
I3
tp2597
a(g7
g7
g7
g7
I4
tp2598
a(S'G3'
p2599
g7
S'E-4'
p2600
g7
I1
tp2601
a(g7
g7
g7
g7
I2
tp2602
a(g7
g7
g7
g7
I3
tp2603
a(g7
g7
g7
g7
I4
tp2604
a(S'F3'
p2605
g7
g7
g7
I1
tp2606
a(g7
g7
g7
g7
I2
tp2607
a(g7
g7
g7
g7
I3
tp2608
a(g7
g7
g7
g7
I4
tp2609
a(S'B-3'
p2610
g7
S'D4'
p2611
g7
I1
tp2612
a(g7
g7
g7
g7
I2
tp2613
a(g7
g7
g7
g7
I3
tp2614
a(g7
g7
g7
g7
I4
tp2615
a(S'G3'
p2616
S'E-5'
p2617
S'C4'
p2618
g7
I1
tp2619
a(g7
g7
g7
g7
I2
tp2620
a(g7
g7
g7
g7
I3
tp2621
a(g7
g7
g7
g7
I4
tp2622
a(g7
g7
S'G4'
p2623
g7
I1
tp2624
a(g7
g7
g7
g7
I2
tp2625
a(g7
g7
g7
g7
I3
tp2626
a(g7
g7
g7
g7
I4
tp2627
a(S'F3'
p2628
g4
S'C5'
p2629
S'A2'
p2630
I1
tp2631
a(g7
g7
g7
g7
I2
tp2632
a(g7
g7
g7
g7
I3
tp2633
a(g7
g7
g7
g7
I4
tp2634
a(g7
S'E-5'
p2635
g7
g7
I1
tp2636
a(g7
g7
g7
g7
I2
tp2637
a(g7
g7
g7
g7
I3
tp2638
a(g7
g7
g7
g7
I4
tp2639
a(g7
S'D5'
p2640
g7
S'B-2'
p2641
I1
tp2642
a(g7
g7
g7
g7
I2
tp2643
a(g7
g7
g7
g7
I3
tp2644
a(g7
g7
g7
g7
I4
tp2645
a(S'D3'
p2646
S'G5'
p2647
S'B-4'
p2648
g7
I1
tp2649
a(g7
g7
g7
g7
I2
tp2650
a(g7
g7
S'A4'
p2651
g7
I3
tp2652
a(g7
g7
g7
g7
I4
tp2653
a(S'G3'
p2654
g7
S'B-4'
p2655
g7
I1
tp2656
a(g7
g7
g7
g7
I2
tp2657
a(g7
g7
g7
g7
I3
tp2658
a(g7
g7
g7
g7
I4
tp2659
a(g7
S'F5'
p2660
g7
S'G2'
p2661
I1
tp2662
a(g7
g7
g7
g7
I2
tp2663
a(g7
g7
g7
g7
I3
tp2664
a(g7
g7
g7
g7
I4
tp2665
a(g7
S'E-5'
p2666
g7
S'C3'
p2667
I1
tp2668
a(g7
g7
g7
g7
I2
tp2669
a(g7
g7
g7
g7
I3
tp2670
a(g7
g7
g7
g7
I4
tp2671
a(S'C4'
p2672
S'E-5'
p2673
g7
g7
I1
tp2674
a(g7
g7
g7
g7
I2
tp2675
a(S'B-3'
p2676
S'D5'
p2677
g7
g7
I3
tp2678
a(g7
g7
g7
g7
I4
tp2679
a(S'C4'
p2680
S'E-5'
p2681
S'A4'
p2682
g4
I1
tp2683
a(g7
g7
g7
g7
I2
tp2684
a(g7
g7
g7
g7
I3
tp2685
a(g7
g7
g7
g7
I4
tp2686
a(g7
S'G5'
p2687
S'G4'
p2688
S'E-3'
p2689
I1
tp2690
a(g7
g7
g7
g7
I2
tp2691
a(g7
g7
g7
g7
I3
tp2692
a(g7
g7
g7
g7
I4
tp2693
a(g7
S'C5'
p2694
S'A4'
p2695
S'F3'
p2696
I1
tp2697
a(g7
g7
g7
g7
I2
tp2698
a(g7
g7
g7
g7
I3
tp2699
a(g7
g7
g7
g7
I4
tp2700
a(g7
S'F5'
p2701
g7
g7
I1
tp2702
a(g7
g7
g7
g7
I2
tp2703
a(S'D4'
p2704
g7
S'B-4'
p2705
g7
I3
tp2706
a(S'C4'
p2707
g7
S'A4'
p2708
g7
I4
tp2709
a(S'B-3'
p2710
g7
S'G4'
p2711
g4
I1
tp2712
a(g7
g7
g7
g7
I2
tp2713
a(g7
g7
g7
g7
I3
tp2714
a(g7
g7
g7
g7
I4
tp2715
a(S'C4'
p2716
S'E-5'
p2717
S'A4'
p2718
S'F3'
p2719
I1
tp2720
a(g7
g7
g7
g7
I2
tp2721
a(g7
g7
g7
g7
I3
tp2722
a(g7
g7
g7
g7
I4
tp2723
a(S'D4'
p2724
S'D5'
p2725
S'B-4'
p2726
S'B-3'
p2727
I1
tp2728
a(g7
g7
g7
g7
I2
tp2729
a(g7
g7
g7
g7
I3
tp2730
a(g7
g7
g7
g7
I4
tp2731
a(g7
S'D5'
p2732
g7
S'F3'
p2733
I1
tp2734
a(g7
g7
g7
g7
I2
tp2735
a(g7
S'C5'
p2736
g7
g7
I3
tp2737
a(g7
g7
g7
g7
I4
tp2738
a(g4
S'D5'
p2739
g4
S'B-3'
p2740
I1
tp2741
a(g7
g7
g7
g7
I2
tp2742
a(g7
g7
g7
g7
I3
tp2743
a(g7
g7
g7
g7
I4
tp2744
a(S'C4'
p2745
S'F5'
p2746
S'F4'
p2747
S'A3'
p2748
I1
tp2749
a(g7
g7
g7
g7
I2
tp2750
a(g7
g7
g7
g7
I3
tp2751
a(g7
g7
g7
g7
I4
tp2752
a(S'D4'
p2753
S'B-4'
p2754
S'G4'
p2755
S'G3'
p2756
I1
tp2757
a(g7
g7
g7
g7
I2
tp2758
a(g7
g7
g7
g7
I3
tp2759
a(g7
g7
g7
g7
I4
tp2760
a(g7
S'B-4'
p2761
g7
S'D3'
p2762
I1
tp2763
a(g7
g7
g7
g7
I2
tp2764
a(g7
S'A4'
p2765
g7
g7
I3
tp2766
a(g7
g7
g7
g7
I4
tp2767
a(g4
S'B-4'
p2768
g4
S'G3'
p2769
I1
tp2770
a(g7
g7
g7
g7
I2
tp2771
a(g7
g7
g7
g7
I3
tp2772
a(g7
g7
g7
g7
I4
tp2773
a(S'G#3'
p2774
S'D5'
p2775
S'D4'
p2776
S'F3'
p2777
I1
tp2778
a(g7
g7
g7
g7
I2
tp2779
a(g7
g7
g7
g7
I3
tp2780
a(g7
g7
g7
g7
I4
tp2781
a(S'B-3'
p2782
S'G4'
p2783
S'E-4'
p2784
S'E-3'
p2785
I1
tp2786
a(g7
g7
g7
g7
I2
tp2787
a(g7
g7
g7
g7
I3
tp2788
a(g7
g7
g7
g7
I4
tp2789
a(S'C4'
p2790
S'A4'
p2791
S'F4'
p2792
g7
I1
tp2793
a(g7
g7
g7
g7
I2
tp2794
a(g7
g7
g7
g7
I3
tp2795
a(g7
g7
g7
g7
I4
tp2796
a(S'D4'
p2797
S'B-4'
p2798
S'G4'
p2799
g7
I1
tp2800
a(g7
g7
g7
g7
I2
tp2801
a(g7
g7
g7
g7
I3
tp2802
a(g7
g7
g7
g7
I4
tp2803
a(g7
g7
g7
S'E3'
p2804
I1
tp2805
a(g7
g7
g7
g7
I2
tp2806
a(g7
g7
g7
g7
I3
tp2807
a(g7
g7
g7
g7
I4
tp2808
a(S'C4'
p2809
g7
S'F4'
p2810
S'F3'
p2811
I1
tp2812
a(g7
g7
g7
g7
I2
tp2813
a(g7
g7
g7
g7
I3
tp2814
a(g7
g7
g7
g7
I4
tp2815
a(S'B-3'
p2816
g7
g7
g7
I1
tp2817
a(g7
g7
g7
g7
I2
tp2818
a(g7
g7
g7
g7
I3
tp2819
a(g7
g7
g7
g7
I4
tp2820
a(S'C4'
p2821
S'A4'
p2822
g7
g7
I1
tp2823
a(g7
g7
g7
g7
I2
tp2824
a(g7
g7
g7
g7
I3
tp2825
a(g7
g7
g7
g7
I4
tp2826
a(g7
g7
S'E-4'
p2827
g7
I1
tp2828
a(g7
g7
g7
g7
I2
tp2829
a(g7
g7
g7
g7
I3
tp2830
a(g7
g7
g7
g7
I4
tp2831
a(S'B-3'
p2832
S'B-4'
p2833
S'D4'
p2834
S'B-2'
p2835
I1
tp2836
a(g7
g7
g7
g7
I2
tp2837
a(g7
g7
g7
g7
I3
tp2838
a(g7
g7
g7
g7
I4
tp2839
a(g7
S'D5'
p2840
S'F4'
p2841
g7
I1
tp2842
a(g7
g7
g7
g7
I2
tp2843
a(g7
S'E-5'
p2844
S'G4'
p2845
g7
I3
tp2846
a(g7
g7
g7
g7
I4
tp2847
a(S'B-3'
p2848
S'F5'
p2849
S'G#4'
p2850
g4
I1
tp2851
a(g7
g7
g7
g7
I2
tp2852
a(g7
g7
g7
g7
I3
tp2853
a(g7
g7
g7
g7
I4
tp2854
a(g7
S'D5'
p2855
g7
g7
I1
tp2856
a(g7
g7
g7
g7
I2
tp2857
a(g7
g7
g7
g7
I3
tp2858
a(g7
g7
g7
g7
I4
tp2859
a(S'E-4'
p2860
S'B-4'
p2861
g7
g7
I1
tp2862
a(g7
g7
g7
g7
I2
tp2863
a(g7
g7
g7
g7
I3
tp2864
a(g7
g7
g7
g7
I4
tp2865
a(g7
S'E-5'
p2866
S'G4'
p2867
g7
I1
tp2868
a(g7
g7
g7
g7
I2
tp2869
a(g7
S'F5'
p2870
S'G#4'
p2871
g7
I3
tp2872
a(g7
g7
g7
g7
I4
tp2873
a(g4
S'G5'
p2874
S'B-4'
p2875
S'E-3'
p2876
I1
tp2877
a(g7
g7
g7
g7
I2
tp2878
a(g7
g7
g7
g7
I3
tp2879
a(g7
g7
g7
g7
I4
tp2880
a(S'E-4'
p2881
S'E-5'
p2882
S'G4'
p2883
g7
I1
tp2884
a(g7
g7
g7
g7
I2
tp2885
a(g7
g7
g7
g7
I3
tp2886
a(g7
g7
g7
g7
I4
tp2887
a(S'D4'
p2888
S'F5'
p2889
S'F4'
p2890
S'B-3'
p2891
I1
tp2892
a(g7
g7
g7
g7
I2
tp2893
a(g7
g7
g7
g7
I3
tp2894
a(g7
g7
g7
g7
I4
tp2895
a(S'G4'
p2896
S'E-5'
p2897
S'G4'
p2898
g7
I1
tp2899
a(g7
g7
g7
g7
I2
tp2900
a(g7
S'D5'
p2901
g7
g7
I3
tp2902
a(g7
g7
g7
g7
I4
tp2903
a(g7
S'C5'
p2904
S'G#4'
p2905
g4
I1
tp2906
a(g7
g7
g7
g7
I2
tp2907
a(g7
g7
g7
g7
I3
tp2908
a(g7
g7
g7
g7
I4
tp2909
a(S'F4'
p2910
S'D5'
p2911
S'B-4'
p2912
S'G#3'
p2913
I1
tp2914
a(g7
g7
g7
g7
I2
tp2915
a(g7
g7
g7
g7
I3
tp2916
a(g7
g7
g7
g7
I4
tp2917
a(S'E-4'
p2918
S'E-5'
p2919
S'E-4'
p2920
S'G3'
p2921
I1
tp2922
a(g7
g7
g7
g7
I2
tp2923
a(g7
g7
g7
g7
I3
tp2924
a(g7
g7
g7
g7
I4
tp2925
a(S'E-4'
p2926
g7
g7
S'C4'
p2927
I1
tp2928
a(g7
g7
g7
g7
I2
tp2929
a(S'D4'
p2930
g7
g7
g7
I3
tp2931
a(g7
g7
g7
g7
I4
tp2932
a(S'E-4'
p2933
g4
g4
g7
I1
tp2934
a(g7
g7
g7
g7
I2
tp2935
a(g7
g7
g7
g7
I3
tp2936
a(g7
g7
g7
g7
I4
tp2937
a(S'G4'
p2938
g7
g7
S'B-3'
p2939
I1
tp2940
a(g7
g7
g7
g7
I2
tp2941
a(g7
g7
g7
g7
I3
tp2942
a(g7
g7
g7
g7
I4
tp2943
a(S'C4'
p2944
g7
g7
S'G#3'
p2945
I1
tp2946
a(g7
g7
g7
g7
I2
tp2947
a(g7
g7
g7
g7
I3
tp2948
a(g7
g7
g7
g7
I4
tp2949
a(S'F4'
p2950
g7
g7
S'G#3'
p2951
I1
tp2952
a(g7
g7
g7
g7
I2
tp2953
a(g7
g7
g7
S'G3'
p2954
I3
tp2955
a(g7
g7
g7
g7
I4
tp2956
a(g7
g7
g7
S'G#3'
p2957
I1
tp2958
a(g7
g7
g7
g7
I2
tp2959
a(g7
g7
g7
g7
I3
tp2960
a(g7
g7
g7
g7
I4
tp2961
a(S'E-4'
p2962
g7
g7
S'C4'
p2963
I1
tp2964
a(g7
g7
g7
g7
I2
tp2965
a(g7
g7
g7
g7
I3
tp2966
a(g7
g7
g7
g7
I4
tp2967
a(S'D4'
p2968
g7
g7
S'F3'
p2969
I1
tp2970
a(g7
g7
g7
g7
I2
tp2971
a(g7
g7
g7
g7
I3
tp2972
a(g7
g7
g7
g7
I4
tp2973
a(S'D4'
p2974
g7
g7
S'B-3'
p2975
I1
tp2976
a(g7
g7
g7
g7
I2
tp2977
a(S'C4'
p2978
g7
g7
g7
I3
tp2979
a(g7
g7
g7
g7
I4
tp2980
a(S'D4'
p2981
g7
g7
g7
I1
tp2982
a(g7
g7
g7
g7
I2
tp2983
a(g7
g7
g7
g7
I3
tp2984
a(g7
g7
g7
g7
I4
tp2985
a(S'F4'
p2986
g7
g7
S'G#3'
p2987
I1
tp2988
a(g7
g7
g7
g7
I2
tp2989
a(g7
g7
g7
g7
I3
tp2990
a(g7
g7
g7
g7
I4
tp2991
a(S'B-3'
p2992
g7
g7
S'G3'
p2993
I1
tp2994
a(g7
g7
g7
g7
I2
tp2995
a(g7
g7
g7
g7
I3
tp2996
a(g7
g7
g7
g7
I4
tp2997
a(S'B-3'
p2998
g7
g7
S'G3'
p2999
I1
tp3000
a(g7
g7
g7
g7
I2
tp3001
a(S'G#3'
p3002
g7
g7
S'F3'
p3003
I3
tp3004
a(g7
g7
g7
g7
I4
tp3005
a(S'B-3'
p3006
g7
g7
S'G3'
p3007
I1
tp3008
a(g7
g7
g7
g7
I2
tp3009
a(g7
g7
g7
g7
I3
tp3010
a(g7
g7
g7
g7
I4
tp3011
a(S'D4'
p3012
g7
g7
S'B-3'
p3013
I1
tp3014
a(g7
g7
g7
g7
I2
tp3015
a(g7
g7
g7
g7
I3
tp3016
a(g7
g7
g7
g7
I4
tp3017
a(S'G3'
p3018
g7
S'B-4'
p3019
S'E-3'
p3020
I1
tp3021
a(g7
g7
g7
g7
I2
tp3022
a(g7
g7
g7
g7
I3
tp3023
a(g7
g7
g7
g7
I4
tp3024
a(g7
g7
g7
S'E-3'
p3025
I1
tp3026
a(g7
g7
g7
g7
I2
tp3027
a(g7
g7
g7
S'D3'
p3028
I3
tp3029
a(g7
g7
g7
g7
I4
tp3030
a(S'G4'
p3031
g7
g7
S'E-3'
p3032
I1
tp3033
a(g7
g7
g7
g7
I2
tp3034
a(g7
g7
g7
g7
I3
tp3035
a(g7
g7
g7
g7
I4
tp3036
a(g7
g7
g7
S'G3'
p3037
I1
tp3038
a(g7
g7
g7
g7
I2
tp3039
a(g7
g7
g7
g7
I3
tp3040
a(g7
g7
g7
g7
I4
tp3041
a(g7
S'E-5'
p3042
S'E-5'
p3043
S'C3'
p3044
I1
tp3045
a(g7
g7
g7
g7
I2
tp3046
a(g7
g7
g7
g7
I3
tp3047
a(g7
g7
g7
g7
I4
tp3048
a(S'G4'
p3049
g7
g7
g7
I1
tp3050
a(g7
g7
g7
g7
I2
tp3051
a(S'F4'
p3052
g7
g7
g7
I3
tp3053
a(g7
g7
g7
g7
I4
tp3054
a(S'G4'
p3055
g7
g4
S'C4'
p3056
I1
tp3057
a(g7
g7
g7
g7
I2
tp3058
a(g7
g7
g7
g7
I3
tp3059
a(g7
g7
g7
g7
I4
tp3060
a(S'A4'
p3061
g7
S'E-5'
p3062
g7
I1
tp3063
a(g7
g7
g7
g7
I2
tp3064
a(g7
g7
g7
g7
I3
tp3065
a(g7
g7
g7
g7
I4
tp3066
a(S'B-4'
p3067
S'B-5'
p3068
S'D5'
p3069
S'B-3'
p3070
I1
tp3071
a(g7
g7
g7
g7
I2
tp3072
a(g7
g7
g7
g7
I3
tp3073
a(g7
g7
g7
g7
I4
tp3074
a(S'D4'
p3075
g7
S'G5'
p3076
S'B-3'
p3077
I1
tp3078
a(g7
g7
g7
g7
I2
tp3079
a(S'C4'
p3080
g7
g7
S'A3'
p3081
I3
tp3082
a(g7
g7
g7
g7
I4
tp3083
a(S'D4'
p3084
g4
g7
S'B-3'
p3085
I1
tp3086
a(g7
g7
g7
g7
I2
tp3087
a(g7
g7
g7
g7
I3
tp3088
a(g7
g7
g7
g7
I4
tp3089
a(S'F4'
p3090
S'G#5'
p3091
S'F5'
p3092
S'D4'
p3093
I1
tp3094
a(g7
g7
g7
g7
I2
tp3095
a(g7
g7
g7
g7
I3
tp3096
a(g7
g7
g7
g7
I4
tp3097
a(S'G4'
p3098
S'G5'
p3099
S'E-5'
p3100
S'E-4'
p3101
I1
tp3102
a(g7
g7
g7
g7
I2
tp3103
a(g7
g7
g7
g7
I3
tp3104
a(g7
g7
g7
g7
I4
tp3105
a(S'G4'
p3106
S'C6'
p3107
S'E-5'
p3108
g7
I1
tp3109
a(g7
g7
g7
g7
I2
tp3110
a(S'F4'
p3111
g7
S'D5'
p3112
g7
I3
tp3113
a(g7
g7
g7
g7
I4
tp3114
a(S'G4'
p3115
g7
S'E-5'
p3116
g4
I1
tp3117
a(g7
g7
g7
g7
I2
tp3118
a(g7
g7
g7
g7
I3
tp3119
a(g7
g7
g7
g7
I4
tp3120
a(g7
S'B-5'
p3121
S'G5'
p3122
S'E4'
p3123
I1
tp3124
a(g7
g7
g7
g7
I2
tp3125
a(g7
g7
g7
g7
I3
tp3126
a(g7
g7
g7
g7
I4
tp3127
a(g7
S'G#5'
p3128
S'C5'
p3129
S'F4'
p3130
I1
tp3131
a(g7
g7
g7
g7
I2
tp3132
a(g7
g7
g7
g7
I3
tp3133
a(g7
g7
g7
g7
I4
tp3134
a(S'F4'
p3135
S'G#5'
p3136
S'F5'
p3137
S'C4'
p3138
I1
tp3139
a(g7
g7
g7
g7
I2
tp3140
a(S'E4'
p3141
S'G5'
p3142
g7
g7
I3
tp3143
a(g7
g7
g7
g7
I4
tp3144
a(S'F4'
p3145
S'G#5'
p3146
g7
S'F3'
p3147
I1
tp3148
a(g7
g7
g7
g7
I2
tp3149
a(g7
g7
g7
g7
I3
tp3150
a(g7
g7
g7
g7
I4
tp3151
a(g7
S'C6'
p3152
S'E-5'
p3153
S'A3'
p3154
I1
tp3155
a(g7
g7
g7
g7
I2
tp3156
a(g7
g7
g7
g7
I3
tp3157
a(g7
g7
g7
g7
I4
tp3158
a(g7
S'F5'
p3159
S'D5'
p3160
S'B-3'
p3161
I1
tp3162
a(g7
g7
g7
g7
I2
tp3163
a(g7
g7
g7
g7
I3
tp3164
a(g7
g7
g7
g7
I4
tp3165
a(S'F4'
p3166
S'B-5'
p3167
S'D5'
p3168
g7
I1
tp3169
a(g7
g7
g7
g7
I2
tp3170
a(S'E-4'
p3171
g7
S'C5'
p3172
g7
I3
tp3173
a(g7
g7
g7
g7
I4
tp3174
a(S'F4'
p3175
g7
S'D5'
p3176
g4
I1
tp3177
a(g7
g7
g7
g7
I2
tp3178
a(g7
g7
g7
g7
I3
tp3179
a(g7
g7
g7
g7
I4
tp3180
a(g7
S'G#5'
p3181
S'F5'
p3182
S'D4'
p3183
I1
tp3184
a(g7
g7
g7
g7
I2
tp3185
a(g7
g7
g7
g7
I3
tp3186
a(g7
g7
g7
g7
I4
tp3187
a(g7
S'G5'
p3188
S'B-4'
p3189
S'E-4'
p3190
I1
tp3191
a(g7
g7
g7
g7
I2
tp3192
a(g7
g7
g7
g7
I3
tp3193
a(g7
g7
g7
g7
I4
tp3194
a(S'E-4'
p3195
S'G5'
p3196
S'B-4'
p3197
S'E-3'
p3198
I1
tp3199
a(g7
g7
g7
g7
I2
tp3200
a(g7
S'F5'
p3201
S'G#4'
p3202
g7
I3
tp3203
a(g7
g7
g7
g7
I4
tp3204
a(g4
S'G5'
p3205
S'B-4'
p3206
S'E-4'
p3207
I1
tp3208
a(g7
g7
g7
g7
I2
tp3209
a(g7
g7
g7
S'D4'
p3210
I3
tp3211
a(g7
g7
g7
g7
I4
tp3212
a(g7
S'B-5'
p3213
S'D5'
p3214
S'C4'
p3215
I1
tp3216
a(g7
g7
g7
g7
I2
tp3217
a(g7
g7
g7
S'B-3'
p3218
I3
tp3219
a(g7
g7
g7
g7
I4
tp3220
a(g7
S'E-5'
p3221
S'G4'
p3222
S'C4'
p3223
I1
tp3224
a(g7
g7
g7
g7
I2
tp3225
a(g7
g7
g7
g7
I3
tp3226
a(g7
g7
g7
g7
I4
tp3227
a(g7
S'E-5'
p3228
S'A4'
p3229
S'C3'
p3230
I1
tp3231
a(g7
g7
g7
g7
I2
tp3232
a(g7
S'D5'
p3233
S'B4'
p3234
g7
I3
tp3235
a(g7
g7
g7
g7
I4
tp3236
a(g7
S'E-5'
p3237
S'C5'
p3238
S'C4'
p3239
I1
tp3240
a(g7
g7
g7
g7
I2
tp3241
a(g7
g7
g7
S'B-3'
p3242
I3
tp3243
a(g7
g7
g7
g7
I4
tp3244
a(g7
S'G5'
p3245
S'B4'
p3246
S'G#3'
p3247
I1
tp3248
a(g7
g7
g7
g7
I2
tp3249
a(g7
g7
g7
S'G3'
p3250
I3
tp3251
a(g7
g7
g7
g7
I4
tp3252
a(g7
S'C5'
p3253
S'C5'
p3254
S'G#3'
p3255
I1
tp3256
a(g7
g7
g7
g7
I2
tp3257
a(g7
g7
g7
g7
I3
tp3258
a(g7
g7
g7
g7
I4
tp3259
a(g7
S'D5'
p3260
g7
S'G#2'
p3261
I1
tp3262
a(g7
g7
g7
g7
I2
tp3263
a(g7
S'E-5'
p3264
g7
g7
I3
tp3265
a(g7
g7
g7
g7
I4
tp3266
a(g7
S'F5'
p3267
g7
S'G#3'
p3268
I1
tp3269
a(g7
g7
g7
g7
I2
tp3270
a(g7
g7
S'B4'
p3271
g7
I3
tp3272
a(g7
g7
g7
g7
I4
tp3273
a(g7
g7
S'C5'
p3274
S'G3'
p3275
I1
tp3276
a(g7
g7
g7
g7
I2
tp3277
a(g7
g7
S'D5'
p3278
S'F3'
p3279
I3
tp3280
a(g7
g7
g7
g7
I4
tp3281
a(g7
g7
S'B4'
p3282
S'G3'
p3283
I1
tp3284
a(g7
g7
g7
g7
I2
tp3285
a(g7
g7
g7
g7
I3
tp3286
a(g7
g7
g7
g7
I4
tp3287
a(g7
g7
S'G4'
p3288
g7
I1
tp3289
a(g7
g7
g7
g7
I2
tp3290
a(g7
g7
g7
g7
I3
tp3291
a(g7
g7
g7
g7
I4
tp3292
a(g7
S'E-5'
p3293
S'C5'
p3294
g7
I1
tp3295
a(g7
g7
g7
g7
I2
tp3296
a(g7
S'D5'
p3297
g7
g7
I3
tp3298
a(g7
g7
g7
g7
I4
tp3299
a(g7
S'E-5'
p3300
g7
g7
I1
tp3301
a(g7
g7
g7
g7
I2
tp3302
a(g7
S'F5'
p3303
g7
g7
I3
tp3304
a(g7
g7
g7
g7
I4
tp3305
a(g7
S'D5'
p3306
g7
g7
I1
tp3307
a(g7
g7
g7
g7
I2
tp3308
a(g7
g7
g7
S'F3'
p3309
I3
tp3310
a(g7
g7
g7
g7
I4
tp3311
a(g7
S'G5'
p3312
g7
S'G3'
p3313
I1
tp3314
a(g7
g7
g7
g7
I2
tp3315
a(g7
g7
g7
S'G#3'
p3316
I3
tp3317
a(g7
g7
g7
g7
I4
tp3318
a(g7
g7
S'B-4'
p3319
S'G3'
p3320
I1
tp3321
a(g7
g7
g7
g7
I2
tp3322
a(g7
g7
g7
S'F3'
p3323
I3
tp3324
a(g7
g7
g7
g7
I4
tp3325
a(g7
S'F5'
p3326
g7
S'E3'
p3327
I1
tp3328
a(g7
g7
g7
g7
I2
tp3329
a(g7
g7
g7
S'D3'
p3330
I3
tp3331
a(g7
g7
g7
g7
I4
tp3332
a(g7
S'E5'
p3333
g7
S'C3'
p3334
I1
tp3335
a(g7
g7
g7
g7
I2
tp3336
a(g7
g7
g7
g7
I3
tp3337
a(g7
g7
g7
g7
I4
tp3338
a(g7
S'C5'
p3339
g7
g7
I1
tp3340
a(g7
g7
g7
g7
I2
tp3341
a(g7
g7
g7
g7
I3
tp3342
a(g7
g7
g7
g7
I4
tp3343
a(g7
S'F5'
p3344
S'G#4'
p3345
g7
I1
tp3346
a(g7
g7
g7
g7
I2
tp3347
a(g7
g7
S'G4'
p3348
g7
I3
tp3349
a(g7
g7
g7
g7
I4
tp3350
a(g7
g7
S'G#4'
p3351
g7
I1
tp3352
a(g7
g7
g7
g7
I2
tp3353
a(g7
g7
S'B-4'
p3354
g7
I3
tp3355
a(g7
g7
g7
g7
I4
tp3356
a(g7
g7
S'G4'
p3357
g7
I1
tp3358
a(g7
g7
g7
g7
I2
tp3359
a(g7
g7
g7
S'B-2'
p3360
I3
tp3361
a(g7
g7
g7
g7
I4
tp3362
a(g7
g7
S'C5'
p3363
S'C3'
p3364
I1
tp3365
a(g7
g7
g7
g7
I2
tp3366
a(g7
g7
g7
S'D3'
p3367
I3
tp3368
a(g7
g7
g7
g7
I4
tp3369
a(g7
S'E-5'
p3370
g7
S'C3'
p3371
I1
tp3372
a(g7
g7
g7
g7
I2
tp3373
a(g7
g7
g7
S'B-2'
p3374
I3
tp3375
a(g7
g7
g7
g7
I4
tp3376
a(g7
g7
S'B-4'
p3377
S'G#2'
p3378
I1
tp3379
a(g7
g7
g7
g7
I2
tp3380
a(g7
g7
g7
S'G2'
p3381
I3
tp3382
a(g7
g7
g7
g7
I4
tp3383
a(g7
g7
S'A4'
p3384
S'F2'
p3385
I1
tp3386
a(g7
g7
g7
g7
I2
tp3387
a(g7
g7
g7
g7
I3
tp3388
a(g7
g7
g7
g7
I4
tp3389
a(g7
g7
S'F4'
p3390
g7
I1
tp3391
a(g7
g7
g7
g7
I2
tp3392
a(g7
g7
g7
g7
I3
tp3393
a(g7
g7
g7
g7
I4
tp3394
a(g7
S'D5'
p3395
S'B-4'
p3396
g7
I1
tp3397
a(g7
g7
g7
g7
I2
tp3398
a(g7
S'C5'
p3399
g7
g7
I3
tp3400
a(g7
g7
g7
g7
I4
tp3401
a(g7
S'D5'
p3402
g7
g7
I1
tp3403
a(g7
g7
g7
g7
I2
tp3404
a(g7
S'E-5'
p3405
g7
g7
I3
tp3406
a(g7
g7
g7
g7
I4
tp3407
a(g7
S'C5'
p3408
g7
g7
I1
tp3409
a(g7
g7
g7
g7
I2
tp3410
a(g7
g7
g7
S'E-3'
p3411
I3
tp3412
a(g7
g7
g7
g7
I4
tp3413
a(g7
S'F5'
p3414
g7
S'F3'
p3415
I1
tp3416
a(g7
g7
g7
g7
I2
tp3417
a(g7
g7
g7
S'G3'
p3418
I3
tp3419
a(g7
g7
g7
g7
I4
tp3420
a(g7
g7
S'G#4'
p3421
S'F3'
p3422
I1
tp3423
a(g7
g7
g7
g7
I2
tp3424
a(g7
g7
g7
S'E-3'
p3425
I3
tp3426
a(g7
g7
g7
g7
I4
tp3427
a(g7
S'E-5'
p3428
g7
S'D3'
p3429
I1
tp3430
a(g7
g7
g7
g7
I2
tp3431
a(g7
g7
g7
S'C3'
p3432
I3
tp3433
a(g7
g7
g7
g7
I4
tp3434
a(g7
S'D5'
p3435
g7
S'B-2'
p3436
I1
tp3437
a(g7
g7
g7
g7
I2
tp3438
a(g7
g7
g7
g7
I3
tp3439
a(g7
g7
g7
g7
I4
tp3440
a(g7
S'B-4'
p3441
g7
g7
I1
tp3442
a(g7
g7
g7
g7
I2
tp3443
a(g7
g7
g7
g7
I3
tp3444
a(g7
g7
g7
g7
I4
tp3445
a(g7
S'E-5'
p3446
S'G4'
p3447
g7
I1
tp3448
a(g7
g7
g7
g7
I2
tp3449
a(g7
g7
S'F4'
p3450
g7
I3
tp3451
a(g7
g7
g7
g7
I4
tp3452
a(g7
g7
S'G4'
p3453
g7
I1
tp3454
a(g7
g7
g7
g7
I2
tp3455
a(g7
g7
S'G#4'
p3456
g7
I3
tp3457
a(g7
g7
g7
g7
I4
tp3458
a(g7
g7
S'F4'
p3459
g7
I1
tp3460
a(g7
g7
g7
g7
I2
tp3461
a(g7
g7
g7
S'G#3'
p3462
I3
tp3463
a(g7
g7
g7
g7
I4
tp3464
a(g7
g7
S'B-4'
p3465
S'B-3'
p3466
I1
tp3467
a(g7
g7
g7
g7
I2
tp3468
a(g7
g7
g7
S'C4'
p3469
I3
tp3470
a(g7
g7
g7
g7
I4
tp3471
a(S'B-3'
p3472
S'C#5'
p3473
g7
S'B-3'
p3474
I1
tp3475
a(g7
g7
g7
g7
I2
tp3476
a(g7
g7
g7
S'G#3'
p3477
I3
tp3478
a(g7
g7
g7
g7
I4
tp3479
a(g7
g7
S'G#4'
p3480
S'G3'
p3481
I1
tp3482
a(g7
g7
g7
g7
I2
tp3483
a(g7
g7
g7
S'F3'
p3484
I3
tp3485
a(g7
g7
g7
g7
I4
tp3486
a(S'E-4'
p3487
g7
S'B-4'
p3488
S'G3'
p3489
I1
tp3490
a(g7
g7
g7
g7
I2
tp3491
a(g7
g7
g7
g7
I3
tp3492
a(g7
g7
g7
g7
I4
tp3493
a(g7
S'C5'
p3494
S'G#4'
p3495
S'G#3'
p3496
I1
tp3497
a(g7
g7
g7
g7
I2
tp3498
a(g7
g7
g7
g7
I3
tp3499
a(g7
g7
g7
g7
I4
tp3500
a(g4
S'B-4'
p3501
g7
S'D3'
p3502
I1
tp3503
a(g7
g7
g7
g7
I2
tp3504
a(g7
g7
g7
g7
I3
tp3505
a(g7
g7
g7
g7
I4
tp3506
a(S'C#4'
p3507
g7
S'G4'
p3508
S'E3'
p3509
I1
tp3510
a(g7
g7
g7
g7
I2
tp3511
a(g7
g7
g7
g7
I3
tp3512
a(g7
g7
g7
g7
I4
tp3513
a(S'C4'
p3514
S'G#4'
p3515
g7
S'F3'
p3516
I1
tp3517
a(g7
g7
g7
g7
I2
tp3518
a(g7
g7
g7
g7
I3
tp3519
a(g7
g7
g7
g7
I4
tp3520
a(S'F4'
p3521
g7
S'F4'
p3522
g7
I1
tp3523
a(g7
g7
g7
g7
I2
tp3524
a(g7
g7
S'G4'
p3525
g7
I3
tp3526
a(g7
g7
g7
g7
I4
tp3527
a(g7
g7
S'G#4'
p3528
g7
I1
tp3529
a(g7
g7
g7
g7
I2
tp3530
a(g7
g7
g7
S'E-3'
p3531
I3
tp3532
a(g7
g7
g7
g7
I4
tp3533
a(S'E-4'
p3534
g7
g7
S'C#3'
p3535
I1
tp3536
a(g7
g7
g7
g7
I2
tp3537
a(g7
g7
g7
S'C3'
p3538
I3
tp3539
a(g7
g7
g7
g7
I4
tp3540
a(S'C#4'
p3541
g4
g7
S'B-2'
p3542
I1
tp3543
a(g7
g7
g7
g7
I2
tp3544
a(g7
g7
g7
g7
I3
tp3545
a(g7
g7
g7
g7
I4
tp3546
a(S'C#4'
p3547
g7
S'F4'
p3548
g7
I1
tp3549
a(g7
g7
g7
g7
I2
tp3550
a(S'C4'
p3551
g7
g7
g7
I3
tp3552
a(g7
g7
g7
g7
I4
tp3553
a(S'C#4'
p3554
g7
S'B-4'
p3555
g7
I1
tp3556
a(g7
g7
g7
g7
I2
tp3557
a(g7
g7
g7
S'B-2'
p3558
I3
tp3559
a(g7
g7
g7
g7
I4
tp3560
a(S'F4'
p3561
g7
S'G#4'
p3562
S'C3'
p3563
I1
tp3564
a(g7
g7
g7
g7
I2
tp3565
a(g7
g7
g7
S'C#3'
p3566
I3
tp3567
a(g7
g7
g7
g7
I4
tp3568
a(S'B-3'
p3569
g7
S'G4'
p3570
S'E-3'
p3571
I1
tp3572
a(g7
g7
g7
g7
I2
tp3573
a(g7
g7
g7
g7
I3
tp3574
a(g7
g7
g7
g7
I4
tp3575
a(S'E-4'
p3576
g7
S'G4'
p3577
g7
I1
tp3578
a(g7
g7
g7
g7
I2
tp3579
a(g7
g7
S'F4'
p3580
g7
I3
tp3581
a(g7
g7
g7
g7
I4
tp3582
a(g7
g7
S'G4'
p3583
g7
I1
tp3584
a(g7
g7
g7
g7
I2
tp3585
a(g7
g7
g7
S'E-2'
p3586
I3
tp3587
a(g7
g7
g7
g7
I4
tp3588
a(S'C#4'
p3589
g7
S'B-4'
p3590
S'F2'
p3591
I1
tp3592
a(g7
g7
g7
g7
I2
tp3593
a(g7
g7
g7
S'G2'
p3594
I3
tp3595
a(g7
g7
g7
g7
I4
tp3596
a(S'C4'
p3597
g7
S'E-4'
p3598
S'G#2'
p3599
I1
tp3600
a(g7
g7
g7
g7
I2
tp3601
a(g7
g7
g7
S'B-2'
p3602
I3
tp3603
a(g7
g7
g7
g7
I4
tp3604
a(S'C4'
p3605
g7
S'G#4'
p3606
S'C3'
p3607
I1
tp3608
a(g7
g7
g7
g7
I2
tp3609
a(S'B-3'
p3610
g7
g7
S'C#3'
p3611
I3
tp3612
a(g7
g7
g7
g7
I4
tp3613
a(S'C4'
p3614
g7
g7
S'E-3'
p3615
I1
tp3616
a(g7
g7
g7
g7
I2
tp3617
a(g7
g7
g7
g7
I3
tp3618
a(g7
g7
g7
g7
I4
tp3619
a(S'E-4'
p3620
g7
S'G4'
p3621
g7
I1
tp3622
a(g7
g7
g7
g7
I2
tp3623
a(g7
g7
g7
g7
I3
tp3624
a(g7
g7
g7
g7
I4
tp3625
a(S'G#3'
p3626
S'B-4'
p3627
S'F4'
p3628
g7
I1
tp3629
a(g7
g7
g7
g7
I2
tp3630
a(g7
g7
g7
g7
I3
tp3631
a(g7
g7
g7
g7
I4
tp3632
a(S'G#3'
p3633
g7
S'F4'
p3634
g7
I1
tp3635
a(g7
g7
g7
g7
I2
tp3636
a(S'G3'
p3637
g7
S'E-4'
p3638
g7
I3
tp3639
a(g7
g7
g7
g7
I4
tp3640
a(S'G#3'
p3641
g7
S'F4'
p3642
S'D3'
p3643
I1
tp3644
a(g7
g7
g7
g7
I2
tp3645
a(g7
g7
g7
g7
I3
tp3646
a(g7
g7
g7
g7
I4
tp3647
a(S'B-3'
p3648
g7
S'G4'
p3649
g7
I1
tp3650
a(g7
g7
g7
g7
I2
tp3651
a(S'G#3'
p3652
g7
S'F4'
p3653
g7
I3
tp3654
a(g7
g7
g7
g7
I4
tp3655
a(S'G3'
p3656
S'E-5'
p3657
S'E-4'
p3658
S'E-3'
p3659
I1
tp3660
a(g7
g7
g7
g7
I2
tp3661
a(g7
g7
g7
g7
I3
tp3662
a(g7
g7
g7
g7
I4
tp3663
a(S'B-3'
p3664
g7
S'G4'
p3665
g7
I1
tp3666
a(g7
g7
g7
g7
I2
tp3667
a(S'G#3'
p3668
g7
S'F4'
p3669
g7
I3
tp3670
a(g7
g7
g7
g7
I4
tp3671
a(S'B-3'
p3672
g4
S'G4'
p3673
g7
I1
tp3674
a(g7
g7
g7
g7
I2
tp3675
a(g7
g7
g7
g7
I3
tp3676
a(g7
g7
g7
g7
I4
tp3677
a(S'C4'
p3678
S'E-5'
p3679
S'A4'
p3680
g7
I1
tp3681
a(g7
g7
g7
g7
I2
tp3682
a(g7
g7
S'G4'
p3683
g7
I3
tp3684
a(g7
g7
g7
g7
I4
tp3685
a(S'D4'
p3686
S'D5'
p3687
S'F4'
p3688
S'B-3'
p3689
I1
tp3690
a(g7
g7
g7
g7
I2
tp3691
a(g7
g7
g7
g7
I3
tp3692
a(g7
g7
g7
g7
I4
tp3693
a(S'D4'
p3694
S'G5'
p3695
S'B-4'
p3696
g7
I1
tp3697
a(g7
g7
g7
g7
I2
tp3698
a(S'C4'
p3699
g7
S'A4'
p3700
g7
I3
tp3701
a(g7
g7
g7
g7
I4
tp3702
a(S'D4'
p3703
g7
S'B-4'
p3704
g4
I1
tp3705
a(g7
g7
g7
g7
I2
tp3706
a(g7
g7
g7
g7
I3
tp3707
a(g7
g7
g7
g7
I4
tp3708
a(S'B-4'
p3709
S'F5'
p3710
S'D5'
p3711
S'G#3'
p3712
I1
tp3713
a(g7
g7
g7
g7
I2
tp3714
a(g7
g7
g7
g7
I3
tp3715
a(g7
g7
g7
g7
I4
tp3716
a(g7
S'E-5'
p3717
S'E-5'
p3718
S'G3'
p3719
I1
tp3720
a(g7
g7
g7
g7
I2
tp3721
a(g7
g7
g7
g7
I3
tp3722
a(g7
g7
g7
g7
I4
tp3723
a(S'G4'
p3724
S'E-5'
p3725
S'C5'
p3726
S'C4'
p3727
I1
tp3728
a(g7
g7
g7
g7
I2
tp3729
a(g7
S'D5'
p3730
g7
g7
I3
tp3731
a(g7
g7
g7
g7
I4
tp3732
a(S'E-4'
p3733
S'E-5'
p3734
S'G4'
p3735
g7
I1
tp3736
a(g7
g7
g7
g7
I2
tp3737
a(g7
g7
g7
g7
I3
tp3738
a(g7
g7
g7
g7
I4
tp3739
a(g7
S'G5'
p3740
g7
S'B-3'
p3741
I1
tp3742
a(g7
g7
g7
g7
I2
tp3743
a(g7
g7
g7
g7
I3
tp3744
a(g7
g7
g7
g7
I4
tp3745
a(g7
S'C5'
p3746
S'G#4'
p3747
S'G#3'
p3748
I1
tp3749
a(g7
g7
g7
g7
I2
tp3750
a(g7
g7
g7
g7
I3
tp3751
a(g7
g7
g7
g7
I4
tp3752
a(S'C4'
p3753
S'F5'
p3754
g7
S'G#3'
p3755
I1
tp3756
a(g7
g7
g7
g7
I2
tp3757
a(S'B-3'
p3758
g7
g7
S'G3'
p3759
I3
tp3760
a(g7
g7
g7
g7
I4
tp3761
a(S'C4'
p3762
g7
g7
S'G#3'
p3763
I1
tp3764
a(g7
g7
g7
g7
I2
tp3765
a(g7
g7
g7
g7
I3
tp3766
a(g7
g7
g7
g7
I4
tp3767
a(S'E-4'
p3768
S'E-5'
p3769
S'G4'
p3770
S'C4'
p3771
I1
tp3772
a(g7
g7
g7
g7
I2
tp3773
a(g7
g7
g7
g7
I3
tp3774
a(g7
g7
g7
g7
I4
tp3775
a(S'F4'
p3776
S'D5'
p3777
S'G#4'
p3778
S'F3'
p3779
I1
tp3780
a(g7
g7
g7
g7
I2
tp3781
a(g7
g7
g7
g7
I3
tp3782
a(g7
g7
g7
g7
I4
tp3783
a(S'D4'
p3784
S'D5'
p3785
S'F4'
p3786
S'B-3'
p3787
I1
tp3788
a(g7
g7
g7
g7
I2
tp3789
a(g7
S'C5'
p3790
g7
g7
I3
tp3791
a(g7
g7
g7
g7
I4
tp3792
a(g4
S'D5'
p3793
S'B-4'
p3794
g7
I1
tp3795
a(g7
g7
g7
g7
I2
tp3796
a(g7
g7
g7
g7
I3
tp3797
a(g7
g7
g7
g7
I4
tp3798
a(S'D4'
p3799
S'F5'
p3800
g7
S'G#3'
p3801
I1
tp3802
a(g7
g7
g7
g7
I2
tp3803
a(g7
g7
g7
g7
I3
tp3804
a(g7
g7
g7
g7
I4
tp3805
a(S'E-4'
p3806
S'B-4'
p3807
g7
S'G3'
p3808
I1
tp3809
a(g7
g7
g7
g7
I2
tp3810
a(g7
g7
g7
g7
I3
tp3811
a(g7
g7
g7
g7
I4
tp3812
a(g7
S'E-5'
p3813
g7
S'G3'
p3814
I1
tp3815
a(g7
g7
g7
g7
I2
tp3816
a(g7
g7
g7
S'F3'
p3817
I3
tp3818
a(g7
g7
g7
g7
I4
tp3819
a(g4
S'C#5'
p3820
g4
S'G3'
p3821
I1
tp3822
a(g7
g7
g7
g7
I2
tp3823
a(g7
g7
g7
g7
I3
tp3824
a(g7
g7
g7
g7
I4
tp3825
a(S'F4'
p3826
g7
S'G#4'
p3827
S'B-3'
p3828
I1
tp3829
a(g7
g7
g7
g7
I2
tp3830
a(g7
g7
g7
g7
I3
tp3831
a(g7
g7
g7
g7
I4
tp3832
a(S'E-4'
p3833
g7
S'G4'
p3834
S'E-3'
p3835
I1
tp3836
a(g7
g7
g7
g7
I2
tp3837
a(g7
g7
g7
g7
I3
tp3838
a(g7
g7
g7
g7
I4
tp3839
a(g7
S'C5'
p3840
g7
S'E-3'
p3841
I1
tp3842
a(g7
g7
g7
g7
I2
tp3843
a(g7
g7
g7
S'D3'
p3844
I3
tp3845
a(g7
g7
g7
g7
I4
tp3846
a(g4
S'B-4'
p3847
g4
S'E-3'
p3848
I1
tp3849
a(g7
g7
g7
g7
I2
tp3850
a(g7
g7
g7
g7
I3
tp3851
a(g7
g7
g7
g7
I4
tp3852
a(S'D4'
p3853
g7
S'F4'
p3854
S'G3'
p3855
I1
tp3856
a(g7
g7
g7
g7
I2
tp3857
a(g7
g7
g7
g7
I3
tp3858
a(g7
g7
g7
g7
I4
tp3859
a(S'C4'
p3860
g7
S'E-4'
p3861
S'C3'
p3862
I1
tp3863
a(g7
g7
g7
g7
I2
tp3864
a(g7
g7
g7
g7
I3
tp3865
a(g7
g7
g7
g7
I4
tp3866
a(g7
S'G#4'
p3867
g7
S'D3'
p3868
I1
tp3869
a(g7
g7
g7
g7
I2
tp3870
a(g7
S'G4'
p3871
g7
S'E-3'
p3872
I3
tp3873
a(g7
g7
g7
g7
I4
tp3874
a(g7
S'G#4'
p3875
g7
S'F3'
p3876
I1
tp3877
a(g7
g7
g7
g7
I2
tp3878
a(g7
g7
g7
g7
I3
tp3879
a(g7
g7
g7
g7
I4
tp3880
a(S'G#3'
p3881
g7
S'D4'
p3882
g7
I1
tp3883
a(g7
g7
g7
g7
I2
tp3884
a(g7
g7
S'C4'
p3885
g7
I3
tp3886
a(g7
g7
g7
g7
I4
tp3887
a(S'F3'
p3888
g7
S'D4'
p3889
S'B-2'
p3890
I1
tp3891
a(g7
g7
g7
g7
I2
tp3892
a(g7
g7
g7
g7
I3
tp3893
a(g7
g7
g7
g7
I4
tp3894
a(g7
g7
S'B-3'
p3895
g7
I1
tp3896
a(g7
g7
g7
g7
I2
tp3897
a(g7
g7
g7
g7
I3
tp3898
a(g7
g7
g7
g7
I4
tp3899
a(g4
S'F#4'
p3900
S'E-4'
p3901
S'A2'
p3902
I1
tp3903
a(g7
g7
g7
g7
I2
tp3904
a(g7
g7
g7
g7
I3
tp3905
a(g7
g7
g7
g7
I4
tp3906
a(S'C4'
p3907
g7
g7
g7
I1
tp3908
a(g7
g7
g7
g7
I2
tp3909
a(g7
g7
g7
g7
I3
tp3910
a(g7
g7
g7
g7
I4
tp3911
a(S'F3'
p3912
S'F4'
p3913
g7
S'B-2'
p3914
I1
tp3915
a(g7
g7
g7
g7
I2
tp3916
a(g7
g7
g7
g7
I3
tp3917
a(g7
g7
g7
g7
I4
tp3918
a(S'F3'
p3919
g7
g7
g7
I1
tp3920
a(g7
g7
g7
g7
I2
tp3921
a(S'E-3'
p3922
g7
g7
g7
I3
tp3923
a(g7
g7
g7
g7
I4
tp3924
a(S'F3'
p3925
g7
S'D4'
p3926
g7
I1
tp3927
a(g7
g7
g7
g7
I2
tp3928
a(g7
g7
g7
g7
I3
tp3929
a(g7
g7
g7
g7
I4
tp3930
a(S'B-3'
p3931
g7
g7
g7
I1
tp3932
a(g7
g7
g7
g7
I2
tp3933
a(g7
g7
g7
g7
I3
tp3934
a(g7
g7
g7
g7
I4
tp3935
a(S'G3'
p3936
S'E-4'
p3937
S'E-4'
p3938
S'E-2'
p3939
I1
tp3940
a(g7
g7
g7
g7
I2
tp3941
a(g7
g7
g7
g7
I3
tp3942
a(g7
g7
g7
g7
I4
tp3943
a(g7
g7
g7
g7
I1
tp3944
a(g7
g7
g7
g7
I2
tp3945
a(g7
g7
g7
g7
I3
tp3946
a(g7
g7
g7
g7
I4
tp3947
a(g7
g7
g7
g7
I1
tp3948
a(g7
g7
g7
g7
I2
tp3949
a(g7
g7
g7
g7
I3
tp3950
a(g7
g7
g7
g7
I4
tp3951
a(g7
g7
g7
g7
I1
tp3952
a(g7
g7
g7
g7
I2
tp3953
a(g7
g7
g7
g7
I3
tp3954
a(g7
g7
g7
g7
I4
tp3955
a(g2130
g2130
g2130
g2130
g2130
tp3956
a(g2130
g2130
g2130
g2130
g2130
tp3957
a(g2130
g2130
g2130
g2130
g2130
tp3958
a(g2130
g2130
g2130
g2130
g2130
tp3959
a(g2130
g2130
g2130
g2130
g2130
tp3960
a(g2130
g2130
g2130
g2130
g2130
tp3961
a(g2130
g2130
g2130
g2130
g2130
tp3962
a(g2130
g2130
g2130
g2130
g2130
tp3963
a(g2130
g2130
g2130
g2130
g2130
tp3964
a(g2130
g2130
g2130
g2130
g2130
tp3965
a(g2130
g2130
g2130
g2130
g2130
tp3966
a(g2130
g2130
g2130
g2130
g2130
tp3967
a(g2130
g2130
g2130
g2130
g2130
tp3968
a(g2130
g2130
g2130
g2130
g2130
tp3969
a(g2130
g2130
g2130
g2130
g2130
tp3970
a(g2130
g2130
g2130
g2130
g2130
tp3971
a(g2130
g2130
g2130
g2130
g2130
tp3972
a(g2130
g2130
g2130
g2130
g2130
tp3973
a(g2130
g2130
g2130
g2130
g2130
tp3974
a(g2130
g2130
g2130
g2130
g2130
tp3975
a(g2130
g2130
g2130
g2130
g2130
tp3976
a(g2130
g2130
g2130
g2130
g2130
tp3977
a(g2130
g2130
g2130
g2130
g2130
tp3978
a(g2130
g2130
g2130
g2130
g2130
tp3979
a(g2130
g2130
g2130
g2130
g2130
tp3980
a(g2130
g2130
g2130
g2130
g2130
tp3981
a(g2130
g2130
g2130
g2130
g2130
tp3982
a(g2130
g2130
g2130
g2130
g2130
tp3983
a(g2130
g2130
g2130
g2130
g2130
tp3984
a(g2130
g2130
g2130
g2130
g2130
tp3985
a(g2130
g2130
g2130
g2130
g2130
tp3986
a(g2130
g2130
g2130
g2130
g2130
tp3987
a(g2130
g2130
g2130
g2130
g2130
tp3988
a(g2130
g2130
g2130
g2130
g2130
tp3989
a(g2130
g2130
g2130
g2130
g2130
tp3990
a(g2130
g2130
g2130
g2130
g2130
tp3991
a(g2130
g2130
g2130
g2130
g2130
tp3992
a(g2130
g2130
g2130
g2130
g2130
tp3993
a(g2130
g2130
g2130
g2130
g2130
tp3994
a(g2130
g2130
g2130
g2130
g2130
tp3995
a(g2130
g2130
g2130
g2130
g2130
tp3996
a(g2130
g2130
g2130
g2130
g2130
tp3997
a(g2130
g2130
g2130
g2130
g2130
tp3998
a(g2130
g2130
g2130
g2130
g2130
tp3999
a(g2130
g2130
g2130
g2130
g2130
tp4000
a(g2130
g2130
g2130
g2130
g2130
tp4001
a(g2130
g2130
g2130
g2130
g2130
tp4002
a(g2130
g2130
g2130
g2130
g2130
tp4003
a(g2130
g2130
g2130
g2130
g2130
tp4004
a(g2130
g2130
g2130
g2130
g2130
tp4005
a(g2130
g2130
g2130
g2130
g2130
tp4006
a(g2130
g2130
g2130
g2130
g2130
tp4007
a(g2130
g2130
g2130
g2130
g2130
tp4008
a(g2130
g2130
g2130
g2130
g2130
tp4009
a(g2130
g2130
g2130
g2130
g2130
tp4010
a(g2130
g2130
g2130
g2130
g2130
tp4011
a(g2130
g2130
g2130
g2130
g2130
tp4012
a(g2130
g2130
g2130
g2130
g2130
tp4013
a(g2130
g2130
g2130
g2130
g2130
tp4014
a(g2130
g2130
g2130
g2130
g2130
tp4015
a(g2130
g2130
g2130
g2130
g2130
tp4016
a(g2130
g2130
g2130
g2130
g2130
tp4017
a(g2130
g2130
g2130
g2130
g2130
tp4018
a(g2130
g2130
g2130
g2130
g2130
tp4019
a(g2130
g2130
g2130
g2130
g2130
tp4020
a(g2130
g2130
g2130
g2130
g2130
tp4021
a(g2130
g2130
g2130
g2130
g2130
tp4022
a(g2130
g2130
g2130
g2130
g2130
tp4023
a(g2130
g2130
g2130
g2130
g2130
tp4024
a(g2130
g2130
g2130
g2130
g2130
tp4025
a(g2130
g2130
g2130
g2130
g2130
tp4026
a(g2130
g2130
g2130
g2130
g2130
tp4027
a(g2130
g2130
g2130
g2130
g2130
tp4028
a(g2130
g2130
g2130
g2130
g2130
tp4029
a(g2130
g2130
g2130
g2130
g2130
tp4030
a(g2130
g2130
g2130
g2130
g2130
tp4031
a(g2130
g2130
g2130
g2130
g2130
tp4032
a(g2130
g2130
g2130
g2130
g2130
tp4033
a(g2130
g2130
g2130
g2130
g2130
tp4034
a(g2130
g2130
g2130
g2130
g2130
tp4035
a(g2130
g2130
g2130
g2130
g2130
tp4036
a(g2130
g2130
g2130
g2130
g2130
tp4037
a(g2130
g2130
g2130
g2130
g2130
tp4038
a(g2130
g2130
g2130
g2130
g2130
tp4039
a(g2130
g2130
g2130
g2130
g2130
tp4040
a(g2130
g2130
g2130
g2130
g2130
tp4041
a(g2130
g2130
g2130
g2130
g2130
tp4042
a(g2130
g2130
g2130
g2130
g2130
tp4043
a(g2130
g2130
g2130
g2130
g2130
tp4044
a(g2130
g2130
g2130
g2130
g2130
tp4045
a(g2130
g2130
g2130
g2130
g2130
tp4046
a(g2130
g2130
g2130
g2130
g2130
tp4047
a(g2130
g2130
g2130
g2130
g2130
tp4048
a(g2130
g2130
g2130
g2130
g2130
tp4049
a(g2130
g2130
g2130
g2130
g2130
tp4050
a(g2130
g2130
g2130
g2130
g2130
tp4051
a(g2130
g2130
g2130
g2130
g2130
tp4052
a(g2130
g2130
g2130
g2130
g2130
tp4053
a(g2130
g2130
g2130
g2130
g2130
tp4054
a(g2130
g2130
g2130
g2130
g2130
tp4055
a(g2130
g2130
g2130
g2130
g2130
tp4056
a(g2130
g2130
g2130
g2130
g2130
tp4057
a(g2130
g2130
g2130
g2130
g2130
tp4058
a(g2130
g2130
g2130
g2130
g2130
tp4059
a(g2130
g2130
g2130
g2130
g2130
tp4060
a(g2130
g2130
g2130
g2130
g2130
tp4061
a(g2130
g2130
g2130
g2130
g2130
tp4062
a(g2130
g2130
g2130
g2130
g2130
tp4063
a(g2130
g2130
g2130
g2130
g2130
tp4064
a(g2130
g2130
g2130
g2130
g2130
tp4065
a(g2130
g2130
g2130
g2130
g2130
tp4066
a(g2130
g2130
g2130
g2130
g2130
tp4067
a(g2130
g2130
g2130
g2130
g2130
tp4068
a(g2130
g2130
g2130
g2130
g2130
tp4069
a(g2130
g2130
g2130
g2130
g2130
tp4070
a(g2130
g2130
g2130
g2130
g2130
tp4071
a(g2130
g2130
g2130
g2130
g2130
tp4072
a(g2130
g2130
g2130
g2130
g2130
tp4073
a(g2130
g2130
g2130
g2130
g2130
tp4074
a(g2130
g2130
g2130
g2130
g2130
tp4075
a(g2130
g2130
g2130
g2130
g2130
tp4076
a(g2130
g2130
g2130
g2130
g2130
tp4077
a(g2130
g2130
g2130
g2130
g2130
tp4078
a(g2130
g2130
g2130
g2130
g2130
tp4079
a(g2130
g2130
g2130
g2130
g2130
tp4080
a(g2130
g2130
g2130
g2130
g2130
tp4081
a(g2130
g2130
g2130
g2130
g2130
tp4082
a(g2130
g2130
g2130
g2130
g2130
tp4083
a(g2130
g2130
g2130
g2130
g2130
tp4084
a(g2130
g2130
g2130
g2130
g2130
tp4085
a(g2130
g2130
g2130
g2130
g2130
tp4086
a(g2130
g2130
g2130
g2130
g2130
tp4087
a(g2130
g2130
g2130
g2130
g2130
tp4088
a(g2130
g2130
g2130
g2130
g2130
tp4089
a(g2130
g2130
g2130
g2130
g2130
tp4090
a(g2130
g2130
g2130
g2130
g2130
tp4091
a(g2130
g2130
g2130
g2130
g2130
tp4092
a(g2130
g2130
g2130
g2130
g2130
tp4093
a(g2130
g2130
g2130
g2130
g2130
tp4094
a(g2130
g2130
g2130
g2130
g2130
tp4095
a(g2130
g2130
g2130
g2130
g2130
tp4096
a(g2130
g2130
g2130
g2130
g2130
tp4097
a(g2130
g2130
g2130
g2130
g2130
tp4098
a(g2130
g2130
g2130
g2130
g2130
tp4099
a(g2130
g2130
g2130
g2130
g2130
tp4100
a(g2130
g2130
g2130
g2130
g2130
tp4101
a(g2130
g2130
g2130
g2130
g2130
tp4102
a(g2130
g2130
g2130
g2130
g2130
tp4103
a(g2130
g2130
g2130
g2130
g2130
tp4104
a(g2130
g2130
g2130
g2130
g2130
tp4105
a(g2130
g2130
g2130
g2130
g2130
tp4106
a(g2130
g2130
g2130
g2130
g2130
tp4107
a(g2130
g2130
g2130
g2130
g2130
tp4108
a(g2130
g2130
g2130
g2130
g2130
tp4109
a(g2130
g2130
g2130
g2130
g2130
tp4110
a(g2130
g2130
g2130
g2130
g2130
tp4111
a(g2130
g2130
g2130
g2130
g2130
tp4112
a(g2130
g2130
g2130
g2130
g2130
tp4113
a(g2130
g2130
g2130
g2130
g2130
tp4114
a(g2130
g2130
g2130
g2130
g2130
tp4115
a(g2130
g2130
g2130
g2130
g2130
tp4116
a(g2130
g2130
g2130
g2130
g2130
tp4117
a(g2130
g2130
g2130
g2130
g2130
tp4118
a(g2130
g2130
g2130
g2130
g2130
tp4119
a(g2130
g2130
g2130
g2130
g2130
tp4120
a(g2130
g2130
g2130
g2130
g2130
tp4121
a(g2130
g2130
g2130
g2130
g2130
tp4122
a(g2130
g2130
g2130
g2130
g2130
tp4123
a(g2130
g2130
g2130
g2130
g2130
tp4124
a(g2130
g2130
g2130
g2130
g2130
tp4125
a(g2130
g2130
g2130
g2130
g2130
tp4126
a(g2130
g2130
g2130
g2130
g2130
tp4127
a(g2130
g2130
g2130
g2130
g2130
tp4128
a(g2130
g2130
g2130
g2130
g2130
tp4129
a(g2130
g2130
g2130
g2130
g2130
tp4130
a(g2130
g2130
g2130
g2130
g2130
tp4131
a(g2130
g2130
g2130
g2130
g2130
tp4132
a(g2130
g2130
g2130
g2130
g2130
tp4133
a(g2130
g2130
g2130
g2130
g2130
tp4134
a(g2130
g2130
g2130
g2130
g2130
tp4135
a(g2130
g2130
g2130
g2130
g2130
tp4136
a(g2130
g2130
g2130
g2130
g2130
tp4137
a(g2130
g2130
g2130
g2130
g2130
tp4138
a(g2130
g2130
g2130
g2130
g2130
tp4139
a(g2130
g2130
g2130
g2130
g2130
tp4140
a(g2130
g2130
g2130
g2130
g2130
tp4141
a(g2130
g2130
g2130
g2130
g2130
tp4142
a(g2130
g2130
g2130
g2130
g2130
tp4143
a(g2130
g2130
g2130
g2130
g2130
tp4144
a(g2130
g2130
g2130
g2130
g2130
tp4145
a(g2130
g2130
g2130
g2130
g2130
tp4146
a(g2130
g2130
g2130
g2130
g2130
tp4147
a(g2130
g2130
g2130
g2130
g2130
tp4148
a(g2130
g2130
g2130
g2130
g2130
tp4149
a(g2130
g2130
g2130
g2130
g2130
tp4150
a(g2130
g2130
g2130
g2130
g2130
tp4151
a(g2130
g2130
g2130
g2130
g2130
tp4152
a(g2130
g2130
g2130
g2130
g2130
tp4153
a(g2130
g2130
g2130
g2130
g2130
tp4154
a(g2130
g2130
g2130
g2130
g2130
tp4155
a(g2130
g2130
g2130
g2130
g2130
tp4156
a(g2130
g2130
g2130
g2130
g2130
tp4157
a(g2130
g2130
g2130
g2130
g2130
tp4158
a(g2130
g2130
g2130
g2130
g2130
tp4159
a(g2130
g2130
g2130
g2130
g2130
tp4160
a(g2130
g2130
g2130
g2130
g2130
tp4161
a(g2130
g2130
g2130
g2130
g2130
tp4162
a(g2130
g2130
g2130
g2130
g2130
tp4163
a(g2130
g2130
g2130
g2130
g2130
tp4164
a(g2130
g2130
g2130
g2130
g2130
tp4165
a(g2130
g2130
g2130
g2130
g2130
tp4166
a(g2130
g2130
g2130
g2130
g2130
tp4167
a(g2130
g2130
g2130
g2130
g2130
tp4168
a(g2130
g2130
g2130
g2130
g2130
tp4169
a(g2130
g2130
g2130
g2130
g2130
tp4170
a(g2130
g2130
g2130
g2130
g2130
tp4171
a(g2130
g2130
g2130
g2130
g2130
tp4172
a(g2130
g2130
g2130
g2130
g2130
tp4173
a(g2130
g2130
g2130
g2130
g2130
tp4174
a(g2130
g2130
g2130
g2130
g2130
tp4175
a(g2130
g2130
g2130
g2130
g2130
tp4176
a(g2130
g2130
g2130
g2130
g2130
tp4177
a(g2130
g2130
g2130
g2130
g2130
tp4178
a(g2130
g2130
g2130
g2130
g2130
tp4179
a(g2130
g2130
g2130
g2130
g2130
tp4180
a(g2130
g2130
g2130
g2130
g2130
tp4181
a(g2130
g2130
g2130
g2130
g2130
tp4182
a(g2130
g2130
g2130
g2130
g2130
tp4183
a(g2130
g2130
g2130
g2130
g2130
tp4184
a(g2130
g2130
g2130
g2130
g2130
tp4185
a(g2130
g2130
g2130
g2130
g2130
tp4186
a(g2130
g2130
g2130
g2130
g2130
tp4187
a(g2130
g2130
g2130
g2130
g2130
tp4188
a(g2130
g2130
g2130
g2130
g2130
tp4189
a(g2130
g2130
g2130
g2130
g2130
tp4190
a(g2130
g2130
g2130
g2130
g2130
tp4191
a(g2130
g2130
g2130
g2130
g2130
tp4192
a(g2130
g2130
g2130
g2130
g2130
tp4193
a(g2130
g2130
g2130
g2130
g2130
tp4194
a(g2130
g2130
g2130
g2130
g2130
tp4195
a(g2130
g2130
g2130
g2130
g2130
tp4196
a(g2130
g2130
g2130
g2130
g2130
tp4197
a(g2130
g2130
g2130
g2130
g2130
tp4198
a(g2130
g2130
g2130
g2130
g2130
tp4199
a(g2130
g2130
g2130
g2130
g2130
tp4200
a(g2130
g2130
g2130
g2130
g2130
tp4201
a(g2130
g2130
g2130
g2130
g2130
tp4202
a(g2130
g2130
g2130
g2130
g2130
tp4203
a(g2130
g2130
g2130
g2130
g2130
tp4204
a(g2130
g2130
g2130
g2130
g2130
tp4205
a(g2130
g2130
g2130
g2130
g2130
tp4206
a(g2130
g2130
g2130
g2130
g2130
tp4207
a(g2130
g2130
g2130
g2130
g2130
tp4208
a(g2130
g2130
g2130
g2130
g2130
tp4209
a(g2130
g2130
g2130
g2130
g2130
tp4210
a(g2130
g2130
g2130
g2130
g2130
tp4211
a(g2130
g2130
g2130
g2130
g2130
tp4212
aa(lp4213
(g4
g4
g4
g4
I1
tp4214
a(g7
g7
g7
g7
I2
tp4215
a(S'D4'
p4216
g7
g7
g7
I3
tp4217
a(g7
g7
g7
g7
I4
tp4218
a(S'D4'
p4219
g7
g7
g7
I1
tp4220
a(g7
g7
g7
g7
I2
tp4221
a(S'D4'
p4222
g7
g7
g7
I3
tp4223
a(g7
g7
g7
g7
I4
tp4224
a(S'G3'
p4225
g7
g7
g7
I1
tp4226
a(g7
g7
g7
g7
I2
tp4227
a(g7
g7
g7
g7
I3
tp4228
a(g7
g7
g7
g7
I4
tp4229
a(S'B3'
p4230
g7
g7
g7
I1
tp4231
a(g7
g7
g7
g7
I2
tp4232
a(g7
g7
g7
g7
I3
tp4233
a(g7
g7
g7
g7
I4
tp4234
a(g7
g7
g7
g7
I1
tp4235
a(g7
g7
g7
g7
I2
tp4236
a(S'E3'
p4237
g7
g7
g7
I3
tp4238
a(g7
g7
g7
g7
I4
tp4239
a(S'A3'
p4240
g7
g7
g7
I1
tp4241
a(g7
g7
g7
g7
I2
tp4242
a(S'G3'
p4243
g7
g7
g7
I3
tp4244
a(g7
g7
g7
g7
I4
tp4245
a(S'F#3'
p4246
g7
g7
g7
I1
tp4247
a(g7
g7
g7
g7
I2
tp4248
a(g7
g7
S'A4'
p4249
g7
I3
tp4250
a(g7
g7
g7
g7
I4
tp4251
a(S'D3'
p4252
g7
S'A4'
p4253
g7
I1
tp4254
a(g7
g7
g7
g7
I2
tp4255
a(g7
g7
S'A4'
p4256
g7
I3
tp4257
a(g7
g7
g7
g7
I4
tp4258
a(g4
g7
S'D4'
p4259
g7
I1
tp4260
a(g7
g7
g7
g7
I2
tp4261
a(S'F#3'
p4262
g7
g7
g7
I3
tp4263
a(g7
g7
g7
g7
I4
tp4264
a(S'B3'
p4265
g7
S'F#4'
p4266
g7
I1
tp4267
a(g7
g7
g7
g7
I2
tp4268
a(S'A3'
p4269
g7
g7
g7
I3
tp4270
a(g7
g7
g7
g7
I4
tp4271
a(S'G#3'
p4272
g7
g7
g7
I1
tp4273
a(g7
g7
g7
g7
I2
tp4274
a(g7
g7
S'B3'
p4275
g7
I3
tp4276
a(g7
g7
g7
g7
I4
tp4277
a(g7
g7
S'E4'
p4278
g7
I1
tp4279
a(g7
g7
g7
g7
I2
tp4280
a(g7
g7
S'D4'
p4281
g7
I3
tp4282
a(g7
g7
g7
g7
I4
tp4283
a(S'A3'
p4284
g7
S'C#4'
p4285
g7
I1
tp4286
a(g7
g7
g7
g7
I2
tp4287
a(g7
g7
S'E4'
p4288
g7
I3
tp4289
a(g7
g7
g7
g7
I4
tp4290
a(S'C#4'
p4291
g7
S'A4'
p4292
g7
I1
tp4293
a(g7
g7
g7
g7
I2
tp4294
a(g7
g7
S'G4'
p4295
g7
I3
tp4296
a(g7
g7
g7
g7
I4
tp4297
a(g4
g7
S'F#4'
p4298
g7
I1
tp4299
a(g7
g7
g7
g7
I2
tp4300
a(S'A3'
p4301
g7
g7
g7
I3
tp4302
a(g7
g7
g7
g7
I4
tp4303
a(S'D4'
p4304
g7
S'A4'
p4305
g7
I1
tp4306
a(g7
g7
g7
g7
I2
tp4307
a(S'C4'
p4308
g7
g7
g7
I3
tp4309
a(g7
g7
g7
g7
I4
tp4310
a(S'B3'
p4311
g7
g7
g7
I1
tp4312
a(g7
g7
g7
g7
I2
tp4313
a(g7
S'D5'
p4314
S'D4'
p4315
g7
I3
tp4316
a(g7
g7
g7
g7
I4
tp4317
a(g7
S'D5'
p4318
S'G4'
p4319
g7
I1
tp4320
a(g7
g7
g7
g7
I2
tp4321
a(g7
S'D5'
p4322
S'F#4'
p4323
g7
I3
tp4324
a(g7
g7
g7
g7
I4
tp4325
a(g4
S'G4'
p4326
S'E4'
p4327
g7
I1
tp4328
a(g7
g7
g7
g7
I2
tp4329
a(S'B3'
p4330
g7
S'F#4'
p4331
g7
I3
tp4332
a(g7
g7
g7
g7
I4
tp4333
a(S'E4'
p4334
S'B4'
p4335
S'G4'
p4336
g7
I1
tp4337
a(g7
g7
g7
g7
I2
tp4338
a(S'D4'
p4339
g7
g7
g7
I3
tp4340
a(g7
g7
g7
g7
I4
tp4341
a(S'C#4'
p4342
g7
g7
g7
I1
tp4343
a(g7
g7
g7
g7
I2
tp4344
a(g7
S'E4'
p4345
g7
S'A3'
p4346
I3
tp4347
a(g7
g7
g7
g7
I4
tp4348
a(g7
S'A4'
p4349
S'F#4'
p4350
S'A3'
p4351
I1
tp4352
a(g7
g7
g7
g7
I2
tp4353
a(g7
S'G4'
p4354
S'E4'
p4355
S'A3'
p4356
I3
tp4357
a(g7
g7
g7
g7
I4
tp4358
a(g4
S'F#4'
p4359
S'D4'
p4360
S'D3'
p4361
I1
tp4362
a(g7
g7
g7
g7
I2
tp4363
a(S'A3'
p4364
g7
g7
g7
I3
tp4365
a(g7
g7
g7
g7
I4
tp4366
a(S'D4'
p4367
g7
g4
S'F#3'
p4368
I1
tp4369
a(g7
g7
g7
g7
I2
tp4370
a(S'C#4'
p4371
g7
g7
g7
I3
tp4372
a(g7
g7
g7
g7
I4
tp4373
a(S'B3'
p4374
S'G#4'
p4375
g7
g7
I1
tp4376
a(g7
g7
g7
g7
I2
tp4377
a(g7
g7
g7
S'B2'
p4378
I3
tp4379
a(g7
g7
g7
g7
I4
tp4380
a(g7
g7
g7
S'E3'
p4381
I1
tp4382
a(g7
g7
g7
g7
I2
tp4383
a(g7
g7
S'B3'
p4384
S'D3'
p4385
I3
tp4386
a(g7
g7
g7
g7
I4
tp4387
a(g4
S'A4'
p4388
S'E4'
p4389
S'C#3'
p4390
I1
tp4391
a(g7
g7
g7
g7
I2
tp4392
a(S'E3'
p4393
g7
S'D4'
p4394
S'B2'
p4395
I3
tp4396
a(g7
g7
g7
g7
I4
tp4397
a(S'A3'
p4398
g4
S'C#4'
p4399
S'A2'
p4400
I1
tp4401
a(g7
g7
g7
g7
I2
tp4402
a(S'G3'
p4403
S'E4'
p4404
g7
g7
I3
tp4405
a(g7
g7
g7
g7
I4
tp4406
a(S'F#3'
p4407
S'A4'
p4408
g7
g4
I1
tp4409
a(g7
g7
g7
g7
I2
tp4410
a(S'E3'
p4411
S'G4'
p4412
g7
S'A2'
p4413
I3
tp4414
a(g7
g7
g7
g7
I4
tp4415
a(S'D3'
p4416
S'F#4'
p4417
g4
S'D3'
p4418
I1
tp4419
a(g7
g7
g7
g7
I2
tp4420
a(g7
g7
S'A3'
p4421
S'C#3'
p4422
I3
tp4423
a(g7
g7
g7
g7
I4
tp4424
a(g4
g7
S'D4'
p4425
S'B2'
p4426
I1
tp4427
a(g7
g7
g7
g7
I2
tp4428
a(S'D3'
p4429
g7
S'C#4'
p4430
S'A2'
p4431
I3
tp4432
a(g7
g7
g7
g7
I4
tp4433
a(S'G3'
p4434
S'E4'
p4435
S'B3'
p4436
S'G2'
p4437
I1
tp4438
a(g7
g7
g7
g7
I2
tp4439
a(S'F#3'
p4440
S'D4'
p4441
g7
g7
I3
tp4442
a(g7
g7
g7
g7
I4
tp4443
a(S'E3'
p4444
S'C#4'
p4445
S'A3'
p4446
g7
I1
tp4447
a(g7
g7
g7
g7
I2
tp4448
a(g7
g7
g7
S'E2'
p4449
I3
tp4450
a(g7
g7
g7
g7
I4
tp4451
a(S'D3'
p4452
S'D4'
p4453
S'G#3'
p4454
S'B2'
p4455
I1
tp4456
a(g7
g7
g7
g7
I2
tp4457
a(S'F#3'
p4458
g7
S'A3'
p4459
S'A2'
p4460
I3
tp4461
a(g7
g7
g7
g7
I4
tp4462
a(S'E3'
p4463
g7
S'B3'
p4464
S'G#2'
p4465
I1
tp4466
a(g7
g7
g7
g7
I2
tp4467
a(g7
S'B4'
p4468
g7
g7
I3
tp4469
a(g7
S'A4'
p4470
g7
g7
I4
tp4471
a(g7
S'B4'
p4472
g7
g7
I1
tp4473
a(g7
g7
g7
g7
I2
tp4474
a(g7
S'D4'
p4475
g7
g7
I3
tp4476
a(g7
g7
g7
g7
I4
tp4477
a(g7
S'C#4'
p4478
g4
S'A2'
p4479
I1
tp4480
a(g7
g7
g7
g7
I2
tp4481
a(g7
g7
S'E4'
p4482
g7
I3
tp4483
a(g7
g7
g7
g7
I4
tp4484
a(g7
g4
S'E4'
p4485
S'G2'
p4486
I1
tp4487
a(g7
g7
g7
g7
I2
tp4488
a(g7
g7
S'E4'
p4489
g7
I3
tp4490
a(g7
g7
g7
g7
I4
tp4491
a(g7
g7
S'A3'
p4492
S'F#2'
p4493
I1
tp4494
a(g7
g7
g7
g7
I2
tp4495
a(S'G3'
p4496
S'E4'
p4497
g7
g7
I3
tp4498
a(g7
g7
g7
g7
I4
tp4499
a(S'F#3'
p4500
S'A4'
p4501
S'C4'
p4502
g7
I1
tp4503
a(g7
g7
g7
g7
I2
tp4504
a(S'E3'
p4505
S'G4'
p4506
g7
g7
I3
tp4507
a(g7
g7
g7
g7
I4
tp4508
a(S'E-3'
p4509
S'F#4'
p4510
g7
S'B2'
p4511
I1
tp4512
a(g7
g7
g7
g7
I2
tp4513
a(g7
g7
S'A3'
p4514
g7
I3
tp4515
a(g7
g7
g7
g7
I4
tp4516
a(g7
g7
S'B3'
p4517
g7
I1
tp4518
a(g7
g7
g7
g7
I2
tp4519
a(g7
g7
S'A3'
p4520
g7
I3
tp4521
a(g7
g7
g7
g7
I4
tp4522
a(S'E3'
p4523
g4
S'G3'
p4524
g7
I1
tp4525
a(g7
g7
g7
g7
I2
tp4526
a(S'D3'
p4527
S'B4'
p4528
S'B3'
p4529
g7
I3
tp4530
a(g7
g7
g7
g7
I4
tp4531
a(S'G3'
p4532
S'B4'
p4533
S'E4'
p4534
g7
I1
tp4535
a(g7
g7
g7
g7
I2
tp4536
a(g7
S'B4'
p4537
S'D4'
p4538
g7
I3
tp4539
a(g7
g7
g7
g7
I4
tp4540
a(g7
S'E4'
p4541
S'C#4'
p4542
g7
I1
tp4543
a(g7
g7
g7
g7
I2
tp4544
a(g7
g7
S'B3'
p4545
g7
I3
tp4546
a(g7
g7
g7
g7
I4
tp4547
a(S'C#3'
p4548
S'G4'
p4549
S'B-3'
p4550
g7
I1
tp4551
a(g7
g7
g7
g7
I2
tp4552
a(S'D3'
p4553
g7
S'B3'
p4554
g7
I3
tp4555
a(g7
g7
g7
g7
I4
tp4556
a(S'E3'
p4557
g7
S'C#4'
p4558
g7
I1
tp4559
a(g7
g7
g7
g7
I2
tp4560
a(S'G3'
p4561
S'C#4'
p4562
S'E4'
p4563
g7
I3
tp4564
a(g7
g7
g7
g7
I4
tp4565
a(S'F#3'
p4566
S'F#4'
p4567
S'D4'
p4568
S'B-2'
p4569
I1
tp4570
a(g7
g7
g7
g7
I2
tp4571
a(g7
S'E4'
p4572
S'C#4'
p4573
g7
I3
tp4574
a(g7
g7
g7
g7
I4
tp4575
a(g7
S'D4'
p4576
S'B3'
p4577
S'B2'
p4578
I1
tp4579
a(g7
g7
g7
g7
I2
tp4580
a(S'A3'
p4581
S'F#4'
p4582
g7
g7
I3
tp4583
a(g7
g7
g7
g7
I4
tp4584
a(S'G#3'
p4585
S'B4'
p4586
g4
g4
I1
tp4587
a(g7
g7
g7
g7
I2
tp4588
a(S'F#3'
p4589
S'A4'
p4590
g7
g7
I3
tp4591
a(g7
g7
g7
g7
I4
tp4592
a(S'E3'
p4593
S'G#4'
p4594
g7
g7
I1
tp4595
a(g7
g7
g7
g7
I2
tp4596
a(g7
S'B4'
p4597
g7
S'D3'
p4598
I3
tp4599
a(g7
g7
g7
g7
I4
tp4600
a(g7
S'E5'
p4601
g7
S'C#3'
p4602
I1
tp4603
a(g7
g7
g7
g7
I2
tp4604
a(g7
S'D5'
p4605
g7
S'B2'
p4606
I3
tp4607
a(g7
g7
g7
g7
I4
tp4608
a(g7
S'C#5'
p4609
g7
S'A2'
p4610
I1
tp4611
a(g7
g7
g7
g7
I2
tp4612
a(S'E3'
p4613
g7
S'A4'
p4614
g7
I3
tp4615
a(g7
g7
g7
g7
I4
tp4616
a(S'A3'
p4617
g4
S'A4'
p4618
g4
I1
tp4619
a(g7
g7
g7
g7
I2
tp4620
a(S'G3'
p4621
g7
S'A4'
p4622
S'A2'
p4623
I3
tp4624
a(g7
g7
g7
g7
I4
tp4625
a(S'F#3'
p4626
g7
S'D4'
p4627
S'B2'
p4628
I1
tp4629
a(g7
g7
g7
g7
I2
tp4630
a(S'E3'
p4631
S'D5'
p4632
g7
g7
I3
tp4633
a(g7
g7
g7
g7
I4
tp4634
a(S'D3'
p4635
S'D5'
p4636
S'F#4'
p4637
g4
I1
tp4638
a(g7
g7
g7
g7
I2
tp4639
a(g7
S'D5'
p4640
g7
S'B2'
p4641
I3
tp4642
a(g7
g7
g7
g7
I4
tp4643
a(S'E3'
p4644
S'G4'
p4645
g7
S'E2'
p4646
I1
tp4647
a(g7
g7
g7
g7
I2
tp4648
a(S'F#3'
p4649
g7
S'B3'
p4650
g7
I3
tp4651
a(g7
g7
g7
g7
I4
tp4652
a(S'G3'
p4653
S'B4'
p4654
S'E4'
p4655
g4
I1
tp4656
a(g7
g7
g7
g7
I2
tp4657
a(g7
g7
S'D4'
p4658
S'E3'
p4659
I3
tp4660
a(g7
g7
g7
g7
I4
tp4661
a(g7
g7
S'C#4'
p4662
S'A2'
p4663
I1
tp4664
a(g7
g7
g7
g7
I2
tp4665
a(S'G3'
p4666
S'E4'
p4667
g7
g7
I3
tp4668
a(g7
g7
g7
g7
I4
tp4669
a(S'F#3'
p4670
S'A4'
p4671
g7
g4
I1
tp4672
a(g7
g7
g7
g7
I2
tp4673
a(S'E3'
p4674
S'G4'
p4675
g7
S'A2'
p4676
I3
tp4677
a(g7
g7
g7
g7
I4
tp4678
a(S'D3'
p4679
S'F#4'
p4680
g4
S'D2'
p4681
I1
tp4682
a(g7
g7
g7
g7
I2
tp4683
a(g7
g7
S'A3'
p4684
g7
I3
tp4685
a(g7
g7
g7
g7
I4
tp4686
a(g4
g4
S'D4'
p4687
g4
I1
tp4688
a(g7
g7
g7
g7
I2
tp4689
a(g7
S'A4'
p4690
S'C4'
p4691
g7
I3
tp4692
a(g7
g7
g7
g7
I4
tp4693
a(g7
S'D5'
p4694
S'B3'
p4695
g7
I1
tp4696
a(g7
g7
g7
g7
I2
tp4697
a(g7
S'C5'
p4698
S'D4'
p4699
g7
I3
tp4700
a(g7
g7
g7
g7
I4
tp4701
a(g7
S'B4'
p4702
S'G4'
p4703
g7
I1
tp4704
a(g7
g7
g7
g7
I2
tp4705
a(g7
S'D5'
p4706
S'F#4'
p4707
g7
I3
tp4708
a(g7
g7
g7
g7
I4
tp4709
a(g7
S'G5'
p4710
S'E4'
p4711
g7
I1
tp4712
a(g7
g7
g7
g7
I2
tp4713
a(S'E3'
p4714
g7
S'D4'
p4715
g7
I3
tp4716
a(g7
g7
g7
g7
I4
tp4717
a(S'A3'
p4718
S'F#5'
p4719
S'C#4'
p4720
g7
I1
tp4721
a(g7
g7
g7
g7
I2
tp4722
a(S'G3'
p4723
S'E5'
p4724
g7
g7
I3
tp4725
a(g7
g7
g7
g7
I4
tp4726
a(S'F#3'
p4727
S'A5'
p4728
S'D4'
p4729
g7
I1
tp4730
a(g7
g7
g7
g7
I2
tp4731
a(S'A3'
p4732
S'G5'
p4733
S'E4'
p4734
g7
I3
tp4735
a(g7
g7
g7
g7
I4
tp4736
a(S'D4'
p4737
S'F#5'
p4738
S'F#4'
p4739
g7
I1
tp4740
a(g7
g7
g7
g7
I2
tp4741
a(S'C#4'
p4742
S'E5'
p4743
g7
g7
I3
tp4744
a(g7
g7
g7
g7
I4
tp4745
a(S'B3'
p4746
S'D5'
p4747
g7
g7
I1
tp4748
a(g7
g7
g7
g7
I2
tp4749
a(g7
g7
g7
S'B2'
p4750
I3
tp4751
a(g7
g7
g7
g7
I4
tp4752
a(g4
S'C#5'
p4753
S'G#4'
p4754
S'E3'
p4755
I1
tp4756
a(g7
g7
g7
g7
I2
tp4757
a(g7
S'B4'
p4758
g7
S'D3'
p4759
I3
tp4760
a(g7
g7
g7
g7
I4
tp4761
a(g7
S'E5'
p4762
g7
S'C#3'
p4763
I1
tp4764
a(g7
g7
g7
g7
I2
tp4765
a(S'B3'
p4766
S'D5'
p4767
g7
S'E3'
p4768
I3
tp4769
a(g7
g7
g7
g7
I4
tp4770
a(S'C#4'
p4771
S'C#5'
p4772
S'A4'
p4773
S'A3'
p4774
I1
tp4775
a(g7
g7
g7
g7
I2
tp4776
a(g7
S'B4'
p4777
S'E4'
p4778
S'G#3'
p4779
I3
tp4780
a(g7
g7
g7
g7
I4
tp4781
a(g7
S'A4'
p4782
S'A4'
p4783
S'F#3'
p4784
I1
tp4785
a(g7
g7
g7
g7
I2
tp4786
a(S'A3'
p4787
S'C#5'
p4788
S'G#4'
p4789
S'E3'
p4790
I3
tp4791
a(g7
g7
g7
g7
I4
tp4792
a(S'D4'
p4793
S'B4'
p4794
S'F#4'
p4795
S'D3'
p4796
I1
tp4797
a(g7
g7
g7
g7
I2
tp4798
a(S'C#4'
p4799
S'A4'
p4800
g7
g7
I3
tp4801
a(g7
g7
g7
g7
I4
tp4802
a(S'B3'
p4803
S'G#4'
p4804
S'E4'
p4805
g7
I1
tp4806
a(g7
g7
g7
g7
I2
tp4807
a(g7
S'E4'
p4808
g7
S'C#3'
p4809
I3
tp4810
a(g7
g7
g7
g7
I4
tp4811
a(S'A3'
p4812
S'A4'
p4813
S'D4'
p4814
S'F#3'
p4815
I1
tp4816
a(g7
g7
g7
g7
I2
tp4817
a(S'G#3'
p4818
g7
S'C#4'
p4819
S'E3'
p4820
I3
tp4821
a(g7
g7
g7
g7
I4
tp4822
a(S'F#3'
p4823
g7
S'B3'
p4824
S'D3'
p4825
I1
tp4826
a(g7
g7
g7
g7
I2
tp4827
a(g7
g7
S'C#4'
p4828
g7
I3
tp4829
a(g7
g7
g7
g7
I4
tp4830
a(S'E3'
p4831
S'G#4'
p4832
S'D4'
p4833
S'E3'
p4834
I1
tp4835
a(g7
g7
g7
g7
I2
tp4836
a(g7
g7
g7
g7
I3
tp4837
a(g7
g7
g7
g7
I4
tp4838
a(g7
S'A4'
p4839
g7
S'A2'
p4840
I1
tp4841
a(g7
g7
g7
g7
I2
tp4842
a(g7
g7
S'C#4'
p4843
g7
I3
tp4844
a(g7
g7
g7
g7
I4
tp4845
a(g4
g7
S'F#4'
p4846
g4
I1
tp4847
a(g7
g7
g7
g7
I2
tp4848
a(g7
g7
S'E4'
p4849
S'F#2'
p4850
I3
tp4851
a(g7
g7
g7
g7
I4
tp4852
a(g7
g7
S'E-4'
p4853
S'B2'
p4854
I1
tp4855
a(g7
g7
g7
g7
I2
tp4856
a(S'B3'
p4857
S'F#4'
p4858
g7
g7
I3
tp4859
a(g7
g7
g7
g7
I4
tp4860
a(S'B3'
p4861
S'B4'
p4862
g4
g4
I1
tp4863
a(g7
g7
g7
g7
I2
tp4864
a(S'B3'
p4865
S'A4'
p4866
g7
g7
I3
tp4867
a(g7
g7
g7
g7
I4
tp4868
a(S'E3'
p4869
S'G4'
p4870
g7
g7
I1
tp4871
a(g7
g7
g7
g7
I2
tp4872
a(g7
g7
S'B3'
p4873
S'D3'
p4874
I3
tp4875
a(g7
g7
g7
g7
I4
tp4876
a(S'G3'
p4877
g4
S'E4'
p4878
S'C#3'
p4879
I1
tp4880
a(g7
g7
g7
g7
I2
tp4881
a(g7
g7
S'D4'
p4882
S'B2'
p4883
I3
tp4884
a(g7
g7
g7
g7
I4
tp4885
a(g7
g7
S'C#4'
p4886
S'B-2'
p4887
I1
tp4888
a(g7
g7
g7
g7
I2
tp4889
a(S'C#3'
p4890
S'F#5'
p4891
g7
g7
I3
tp4892
a(g7
g7
g7
g7
I4
tp4893
a(S'F#3'
p4894
S'F#5'
p4895
g4
g4
I1
tp4896
a(g7
g7
g7
g7
I2
tp4897
a(S'E3'
p4898
S'F#5'
p4899
g7
S'B-2'
p4900
I3
tp4901
a(g7
g7
g7
g7
I4
tp4902
a(S'E-3'
p4903
S'B4'
p4904
g7
S'A2'
p4905
I1
tp4906
a(g7
g7
g7
g7
I2
tp4907
a(S'E3'
p4908
g7
S'B4'
p4909
g7
I3
tp4910
a(S'F#3'
p4911
g7
g7
g7
I4
tp4912
a(S'F3'
p4913
S'D5'
p4914
S'B4'
p4915
g4
I1
tp4916
a(g7
g7
g7
g7
I2
tp4917
a(g7
g7
S'B4'
p4918
S'G#2'
p4919
I3
tp4920
a(g7
g7
g7
g7
I4
tp4921
a(g4
g7
S'E4'
p4922
S'C#3'
p4923
I1
tp4924
a(g7
g7
g7
g7
I2
tp4925
a(S'B3'
p4926
S'G#4'
p4927
g7
g7
I3
tp4928
a(g7
g7
g7
g7
I4
tp4929
a(S'B-3'
p4930
S'C#5'
p4931
S'G4'
p4932
g4
I1
tp4933
a(g7
g7
g7
g7
I2
tp4934
a(S'C#4'
p4935
S'B4'
p4936
g7
S'E3'
p4937
I3
tp4938
a(g7
g7
g7
g7
I4
tp4939
a(g7
S'B-4'
p4940
g7
S'F#2'
p4941
I1
tp4942
a(g7
g7
g7
g7
I2
tp4943
a(S'E4'
p4944
g7
S'C#4'
p4945
S'F#3'
p4946
I3
tp4947
a(g7
g7
g7
g7
I4
tp4948
a(S'D4'
p4949
S'B4'
p4950
S'F#4'
p4951
S'G#3'
p4952
I1
tp4953
a(g7
g7
g7
g7
I2
tp4954
a(S'C#4'
p4955
S'C#5'
p4956
S'E4'
p4957
S'B-3'
p4958
I3
tp4959
a(g7
g7
g7
g7
I4
tp4960
a(S'B3'
p4961
S'D5'
p4962
S'D4'
p4963
S'B3'
p4964
I1
tp4965
a(g7
g7
g7
g7
I2
tp4966
a(g7
g7
S'F#4'
p4967
S'A3'
p4968
I3
tp4969
a(g7
g7
g7
g7
I4
tp4970
a(g7
g7
S'B4'
p4971
S'G#3'
p4972
I1
tp4973
a(g7
g7
g7
g7
I2
tp4974
a(g7
g7
S'A4'
p4975
S'F#3'
p4976
I3
tp4977
a(g7
g7
g7
g7
I4
tp4978
a(g7
g7
S'G#4'
p4979
S'F3'
p4980
I1
tp4981
a(g7
g7
g7
g7
I2
tp4982
a(S'G#3'
p4983
g7
g7
g7
I3
tp4984
a(g7
g7
g7
g7
I4
tp4985
a(S'C#4'
p4986
S'C#5'
p4987
g7
g7
I1
tp4988
a(g7
g7
g7
g7
I2
tp4989
a(S'B3'
p4990
g7
g7
g7
I3
tp4991
a(g7
g7
g7
g7
I4
tp4992
a(S'A3'
p4993
g7
g7
g4
I1
tp4994
a(g7
g7
g7
g7
I2
tp4995
a(g7
g7
S'C#4'
p4996
S'F#3'
p4997
I3
tp4998
a(g7
g7
g7
g7
I4
tp4999
a(g7
g7
S'F#4'
p5000
S'F#3'
p5001
I1
tp5002
a(g7
g7
g7
g7
I2
tp5003
a(g7
g7
S'E4'
p5004
S'F#3'
p5005
I3
tp5006
a(g7
g7
g7
g7
I4
tp5007
a(g7
g7
S'D4'
p5008
S'B2'
p5009
I1
tp5010
a(g7
g7
g7
g7
I2
tp5011
a(S'F#3'
p5012
S'B4'
p5013
g7
g7
I3
tp5014
a(g7
S'A4'
p5015
g7
g7
I4
tp5016
a(S'B3'
p5017
S'G#4'
p5018
g7
S'D3'
p5019
I1
tp5020
a(g7
g7
g7
g7
I2
tp5021
a(S'A3'
p5022
S'F#4'
p5023
S'C#4'
p5024
g7
I3
tp5025
a(g7
g7
g7
g7
I4
tp5026
a(S'G#3'
p5027
S'F4'
p5028
S'B3'
p5029
g7
I1
tp5030
a(g7
g7
g7
g7
I2
tp5031
a(g7
g7
g7
S'G#2'
p5032
I3
tp5033
a(g7
g7
g7
g7
I4
tp5034
a(g7
g7
g7
S'C#3'
p5035
I1
tp5036
a(g7
g7
g7
g7
I2
tp5037
a(g7
g7
g7
S'B2'
p5038
I3
tp5039
a(g7
g7
g7
g7
I4
tp5040
a(g7
g7
g7
S'A2'
p5041
I1
tp5042
a(g7
g7
g7
g7
I2
tp5043
a(S'F#3'
p5044
S'C#4'
p5045
S'A3'
p5046
g7
I3
tp5047
a(S'G#3'
p5048
g7
S'B3'
p5049
g7
I4
tp5050
a(S'A3'
p5051
S'F#4'
p5052
S'C#4'
p5053
g7
I1
tp5054
a(g7
g7
g7
g7
I2
tp5055
a(g7
g7
S'D4'
p5056
S'B2'
p5057
I3
tp5058
a(g7
g7
g7
g7
I4
tp5059
a(S'G#3'
p5060
g7
S'C#4'
p5061
S'C#3'
p5062
I1
tp5063
a(g7
g7
g7
g7
I2
tp5064
a(S'F#3'
p5065
g7
g7
g7
I3
tp5066
a(g7
g7
g7
g7
I4
tp5067
a(S'G#3'
p5068
S'F4'
p5069
g7
g7
I1
tp5070
a(g7
g7
g7
g7
I2
tp5071
a(g7
g7
S'B3'
p5072
g7
I3
tp5073
a(g7
g7
g7
g7
I4
tp5074
a(S'F#3'
p5075
S'F#4'
p5076
S'A3'
p5077
S'F#2'
p5078
I1
tp5079
a(g7
g7
g7
g7
I2
tp5080
a(g7
g7
g7
S'A3'
p5081
I3
tp5082
a(g7
g7
g7
g7
I4
tp5083
a(g4
g4
g4
S'A3'
p5084
I1
tp5085
a(g7
g7
g7
g7
I2
tp5086
a(g7
S'A5'
p5087
g7
S'A3'
p5088
I3
tp5089
a(g7
g7
g7
g7
I4
tp5090
a(g7
S'A5'
p5091
g7
S'D3'
p5092
I1
tp5093
a(g7
g7
g7
g7
I2
tp5094
a(g7
S'A5'
p5095
S'A4'
p5096
g7
I3
tp5097
a(g7
g7
g7
g7
I4
tp5098
a(g7
S'D5'
p5099
S'A4'
p5100
S'F#3'
p5101
I1
tp5102
a(g7
g7
g7
g7
I2
tp5103
a(g7
g7
S'A4'
p5104
g7
I3
tp5105
a(g7
g7
g7
g7
I4
tp5106
a(g7
S'F#5'
p5107
S'D4'
p5108
g7
I1
tp5109
a(g7
g7
g7
g7
I2
tp5110
a(S'D3'
p5111
g7
g7
S'B2'
p5112
I3
tp5113
a(g7
g7
g7
g7
I4
tp5114
a(S'G3'
p5115
g7
g4
S'E3'
p5116
I1
tp5117
a(g7
g7
g7
g7
I2
tp5118
a(S'F#3'
p5119
S'B4'
p5120
g7
S'D3'
p5121
I3
tp5122
a(g7
g7
g7
g7
I4
tp5123
a(S'E3'
p5124
S'E5'
p5125
g7
S'C#3'
p5126
I1
tp5127
a(g7
g7
g7
g7
I2
tp5128
a(g7
S'D5'
p5129
S'E4'
p5130
S'B2'
p5131
I3
tp5132
a(g7
g7
g7
g7
I4
tp5133
a(g4
S'C#5'
p5134
S'A4'
p5135
S'A2'
p5136
I1
tp5137
a(g7
g7
g7
g7
I2
tp5138
a(S'A3'
p5139
g7
S'G4'
p5140
g7
I3
tp5141
a(g7
g7
g7
g7
I4
tp5142
a(S'D4'
p5143
g4
S'F#4'
p5144
g4
I1
tp5145
a(g7
g7
g7
g7
I2
tp5146
a(S'C4'
p5147
S'A4'
p5148
g7
g7
I3
tp5149
a(g7
g7
g7
g7
I4
tp5150
a(S'B3'
p5151
S'D5'
p5152
g4
g7
I1
tp5153
a(g7
g7
g7
g7
I2
tp5154
a(S'F#3'
p5155
S'C5'
p5156
S'D4'
p5157
g7
I3
tp5158
a(g7
g7
g7
g7
I4
tp5159
a(S'B3'
p5160
S'B4'
p5161
S'G4'
p5162
g7
I1
tp5163
a(g7
g7
g7
g7
I2
tp5164
a(S'A3'
p5165
g7
S'F#4'
p5166
S'B2'
p5167
I3
tp5168
a(g7
g7
g7
g7
I4
tp5169
a(S'G3'
p5170
g4
S'E4'
p5171
S'E3'
p5172
I1
tp5173
a(g7
g7
g7
g7
I2
tp5174
a(g7
S'B4'
p5175
g7
S'D3'
p5176
I3
tp5177
a(g7
g7
g7
g7
I4
tp5178
a(g4
S'E5'
p5179
g4
S'C3'
p5180
I1
tp5181
a(g7
g7
g7
g7
I2
tp5182
a(S'E3'
p5183
S'D5'
p5184
g7
S'B2'
p5185
I3
tp5186
a(g7
g7
g7
g7
I4
tp5187
a(S'A3'
p5188
S'C5'
p5189
g7
S'A2'
p5190
I1
tp5191
a(g7
g7
g7
g7
I2
tp5192
a(S'G3'
p5193
g7
S'E4'
p5194
g7
I3
tp5195
a(g7
g7
g7
g7
I4
tp5196
a(S'F#3'
p5197
g7
S'A4'
p5198
g7
I1
tp5199
a(g7
g7
g7
g7
I2
tp5200
a(S'E3'
p5201
g7
S'G4'
p5202
g7
I3
tp5203
a(g7
g7
g7
g7
I4
tp5204
a(S'D3'
p5205
g7
S'F#4'
p5206
S'B2'
p5207
I1
tp5208
a(g7
g7
g7
g7
I2
tp5209
a(S'F#3'
p5210
g7
S'E4'
p5211
g7
I3
tp5212
a(g7
g7
g7
g7
I4
tp5213
a(S'B3'
p5214
S'B4'
p5215
S'G4'
p5216
g7
I1
tp5217
a(g7
g7
g7
g7
I2
tp5218
a(S'A3'
p5219
g7
S'F#4'
p5220
S'D3'
p5221
I3
tp5222
a(g7
g7
g7
g7
I4
tp5223
a(S'G3'
p5224
g7
S'E4'
p5225
S'G3'
p5226
I1
tp5227
a(g7
g7
g7
g7
I2
tp5228
a(g7
g7
S'D4'
p5229
S'F#3'
p5230
I3
tp5231
a(g7
g7
g7
g7
I4
tp5232
a(g7
g7
S'C4'
p5233
S'E3'
p5234
I1
tp5235
a(g7
g7
g7
g7
I2
tp5236
a(S'A3'
p5237
S'A4'
p5238
g7
S'F#3'
p5239
I3
tp5240
a(g7
g7
g7
g7
I4
tp5241
a(S'B3'
p5242
g7
S'B3'
p5243
S'G3'
p5244
I1
tp5245
a(g7
g7
g7
g7
I2
tp5246
a(g7
S'G4'
p5247
S'E4'
p5248
S'E3'
p5249
I3
tp5250
a(g7
g7
g7
g7
I4
tp5251
a(S'A3'
p5252
g7
g7
S'C3'
p5253
I1
tp5254
a(g7
g7
g7
g7
I2
tp5255
a(g7
S'F#4'
p5256
S'C4'
p5257
S'A2'
p5258
I3
tp5259
a(g7
S'E4'
p5260
g7
g7
I4
tp5261
a(g7
S'F#4'
p5262
S'D4'
p5263
S'D3'
p5264
I1
tp5265
a(g7
g7
g7
g7
I2
tp5266
a(g7
g7
g7
S'C3'
p5267
I3
tp5268
a(g7
g7
g7
g7
I4
tp5269
a(S'G3'
p5270
S'G4'
p5271
g7
S'B2'
p5272
I1
tp5273
a(g7
g7
g7
g7
I2
tp5274
a(S'D4'
p5275
g7
g7
g7
I3
tp5276
a(g7
g7
g7
g7
I4
tp5277
a(S'D4'
p5278
g4
g4
S'G3'
p5279
I1
tp5280
a(g7
g7
g7
g7
I2
tp5281
a(S'D4'
p5282
g7
S'B4'
p5283
S'F#3'
p5284
I3
tp5285
a(g7
g7
g7
g7
I4
tp5286
a(S'G3'
p5287
g7
S'B4'
p5288
S'E3'
p5289
I1
tp5290
a(g7
g7
g7
g7
I2
tp5291
a(g7
S'G5'
p5292
S'B4'
p5293
g7
I3
tp5294
a(g7
g7
g7
g7
I4
tp5295
a(S'B3'
p5296
S'G5'
p5297
S'E4'
p5298
g7
I1
tp5299
a(g7
g7
g7
g7
I2
tp5300
a(g7
S'G5'
p5301
g7
g7
I3
tp5302
a(g7
g7
g7
g7
I4
tp5303
a(g7
S'C#5'
p5304
S'G4'
p5305
g7
I1
tp5306
a(g7
g7
g7
g7
I2
tp5307
a(S'E3'
p5308
g7
g7
S'D3'
p5309
I3
tp5310
a(g7
g7
g7
g7
I4
tp5311
a(S'A3'
p5312
S'E5'
p5313
g7
S'C#3'
p5314
I1
tp5315
a(g7
g7
g7
g7
I2
tp5316
a(S'G3'
p5317
g7
S'C#4'
p5318
S'A2'
p5319
I3
tp5320
a(g7
g7
g7
g7
I4
tp5321
a(S'F#3'
p5322
g7
S'F#4'
p5323
S'D3'
p5324
I1
tp5325
a(g7
g7
g7
g7
I2
tp5326
a(g7
S'A4'
p5327
S'E4'
p5328
S'C3'
p5329
I3
tp5330
a(g7
g7
g7
g7
I4
tp5331
a(g7
S'D5'
p5332
S'D4'
p5333
S'B2'
p5334
I1
tp5335
a(g7
g7
g7
g7
I2
tp5336
a(g7
S'C5'
p5337
g7
S'A2'
p5338
I3
tp5339
a(g7
g7
g7
g7
I4
tp5340
a(g7
S'B4'
p5341
g7
S'G2'
p5342
I1
tp5343
a(g7
g7
g7
g7
I2
tp5344
a(S'D3'
p5345
g7
g7
g7
I3
tp5346
a(g7
g7
g7
g7
I4
tp5347
a(S'E3'
p5348
g7
g4
S'G#2'
p5349
I1
tp5350
a(g7
g7
g7
g7
I2
tp5351
a(S'D3'
p5352
g7
S'B3'
p5353
g7
I3
tp5354
a(g7
g7
g7
g7
I4
tp5355
a(S'C#3'
p5356
g7
S'E4'
p5357
S'A2'
p5358
I1
tp5359
a(g7
g7
g7
g7
I2
tp5360
a(S'D3'
p5361
S'E4'
p5362
S'D4'
p5363
g7
I3
tp5364
a(g7
g7
g7
g7
I4
tp5365
a(S'E3'
p5366
S'A4'
p5367
S'C#4'
p5368
g7
I1
tp5369
a(g7
g7
g7
g7
I2
tp5370
a(g7
S'G4'
p5371
g7
g7
I3
tp5372
a(g7
g7
g7
g7
I4
tp5373
a(g7
S'F#4'
p5374
g7
S'B-2'
p5375
I1
tp5376
a(g7
g7
g7
g7
I2
tp5377
a(S'C#3'
p5378
g7
g7
g7
I3
tp5379
a(g7
g7
g7
g7
I4
tp5380
a(S'F#3'
p5381
S'C#5'
p5382
g4
g7
I1
tp5383
a(g7
g7
g7
g7
I2
tp5384
a(S'E3'
p5385
g7
S'C#4'
p5386
g7
I3
tp5387
a(g7
g7
g7
g7
I4
tp5388
a(S'D3'
p5389
g7
S'F#4'
p5390
S'B2'
p5391
I1
tp5392
a(g7
g7
g7
g7
I2
tp5393
a(g7
S'F#4'
p5394
S'E4'
p5395
g7
I3
tp5396
a(g7
g7
g7
g7
I4
tp5397
a(g4
S'B4'
p5398
S'D4'
p5399
g7
I1
tp5400
a(g7
g7
g7
g7
I2
tp5401
a(S'F#3'
p5402
S'A4'
p5403
g7
g7
I3
tp5404
a(g7
g7
g7
g7
I4
tp5405
a(S'B3'
p5406
S'G4'
p5407
g7
g7
I1
tp5408
a(g7
g7
g7
g7
I2
tp5409
a(S'A3'
p5410
g7
g7
S'B2'
p5411
I3
tp5412
a(g7
g7
g7
g7
I4
tp5413
a(S'G3'
p5414
g7
g4
S'E3'
p5415
I1
tp5416
a(g7
g7
g7
g7
I2
tp5417
a(g7
g7
S'B3'
p5418
S'D3'
p5419
I3
tp5420
a(g7
g7
g7
g7
I4
tp5421
a(g4
g7
S'E4'
p5422
S'C#3'
p5423
I1
tp5424
a(g7
g7
g7
g7
I2
tp5425
a(g7
g7
S'D4'
p5426
S'E3'
p5427
I3
tp5428
a(g7
g7
g7
g7
I4
tp5429
a(g7
g7
S'C#4'
p5430
S'A3'
p5431
I1
tp5432
a(g7
g7
g7
g7
I2
tp5433
a(g7
S'E4'
p5434
g7
S'G3'
p5435
I3
tp5436
a(g7
g7
g7
g7
I4
tp5437
a(g7
S'A4'
p5438
g7
S'F#3'
p5439
I1
tp5440
a(g7
g7
g7
g7
I2
tp5441
a(g7
S'G4'
p5442
S'C#4'
p5443
S'A3'
p5444
I3
tp5445
a(g7
g7
g7
g7
I4
tp5446
a(g7
S'F#4'
p5447
S'D4'
p5448
S'D4'
p5449
I1
tp5450
a(g7
g7
g7
g7
I2
tp5451
a(g7
S'A4'
p5452
S'E4'
p5453
S'C#4'
p5454
I3
tp5455
a(g7
g7
g7
g7
I4
tp5456
a(g7
S'D5'
p5457
S'D4'
p5458
S'B3'
p5459
I1
tp5460
a(g7
g7
g7
g7
I2
tp5461
a(g7
S'C#5'
p5462
S'F#4'
p5463
S'A3'
p5464
I3
tp5465
a(g7
g7
g7
g7
I4
tp5466
a(g7
S'B4'
p5467
S'B4'
p5468
S'G3'
p5469
I1
tp5470
a(g7
g7
g7
g7
I2
tp5471
a(g7
S'D5'
p5472
S'A4'
p5473
S'F#3'
p5474
I3
tp5475
a(g7
g7
g7
g7
I4
tp5476
a(g7
S'G5'
p5477
S'G4'
p5478
S'E3'
p5479
I1
tp5480
a(g7
g7
g7
g7
I2
tp5481
a(g7
g7
S'B4'
p5482
S'D3'
p5483
I3
tp5484
a(g7
g7
g7
g7
I4
tp5485
a(g7
g7
S'E5'
p5486
S'C#3'
p5487
I1
tp5488
a(g7
g7
g7
g7
I2
tp5489
a(g7
g7
S'D5'
p5490
S'B2'
p5491
I3
tp5492
a(g7
g7
g7
g7
I4
tp5493
a(g7
g7
S'C#5'
p5494
S'A2'
p5495
I1
tp5496
a(g7
g7
g7
g7
I2
tp5497
a(g7
S'E5'
p5498
g7
S'G2'
p5499
I3
tp5500
a(g7
g7
g7
g7
I4
tp5501
a(g7
S'A5'
p5502
g7
S'F#2'
p5503
I1
tp5504
a(g7
g7
g7
g7
I2
tp5505
a(g7
S'G5'
p5506
g7
S'E2'
p5507
I3
tp5508
a(g7
g7
g7
g7
I4
tp5509
a(g7
S'F#5'
p5510
S'D5'
p5511
S'D2'
p5512
I1
tp5513
a(g7
g7
g7
g7
I2
tp5514
a(S'D4'
p5515
S'G5'
p5516
S'E5'
p5517
g7
I3
tp5518
a(g7
g7
g7
g7
I4
tp5519
a(S'D4'
p5520
S'A5'
p5521
S'F#5'
p5522
g4
I1
tp5523
a(g7
g7
g7
g7
I2
tp5524
a(S'D4'
p5525
g7
g7
S'D3'
p5526
I3
tp5527
a(g7
g7
g7
g7
I4
tp5528
a(S'G3'
p5529
g7
g7
S'E3'
p5530
I1
tp5531
a(g7
g7
g7
g7
I2
tp5532
a(g7
S'D5'
p5533
S'B4'
p5534
g7
I3
tp5535
a(g7
g7
g7
g7
I4
tp5536
a(S'B3'
p5537
S'G5'
p5538
S'E5'
p5539
g4
I1
tp5540
a(g7
g7
g7
g7
I2
tp5541
a(g7
S'F#5'
p5542
S'D5'
p5543
S'E3'
p5544
I3
tp5545
a(g7
g7
g7
g7
I4
tp5546
a(g7
S'E5'
p5547
S'C#5'
p5548
S'A2'
p5549
I1
tp5550
a(g7
g7
g7
g7
I2
tp5551
a(S'E3'
p5552
g7
g7
S'G3'
p5553
I3
tp5554
a(g7
g7
g7
g7
I4
tp5555
a(S'A3'
p5556
g7
g4
S'F#3'
p5557
I1
tp5558
a(g7
g7
g7
g7
I2
tp5559
a(S'G3'
p5560
g7
S'E4'
p5561
S'E3'
p5562
I3
tp5563
a(g7
g7
g7
g7
I4
tp5564
a(S'F#3'
p5565
g7
S'A4'
p5566
S'D3'
p5567
I1
tp5568
a(g7
g7
g7
g7
I2
tp5569
a(S'G3'
p5570
g7
S'G4'
p5571
S'E3'
p5572
I3
tp5573
a(g7
g7
g7
g7
I4
tp5574
a(S'A3'
p5575
S'D5'
p5576
S'F#4'
p5577
S'F#3'
p5578
I1
tp5579
a(g7
g7
g7
g7
I2
tp5580
a(g7
S'C5'
p5581
S'E4'
p5582
g7
I3
tp5583
a(g7
g7
g7
g7
I4
tp5584
a(g7
S'B4'
p5585
S'D4'
p5586
g7
I1
tp5587
a(g7
g7
g7
g7
I2
tp5588
a(S'D3'
p5589
g7
g7
S'B2'
p5590
I3
tp5591
a(g7
g7
g7
g7
I4
tp5592
a(S'G3'
p5593
g7
S'C#4'
p5594
S'E3'
p5595
I1
tp5596
a(g7
g7
g7
g7
I2
tp5597
a(S'F#3'
p5598
g7
S'D4'
p5599
S'D3'
p5600
I3
tp5601
a(g7
g7
g7
g7
I4
tp5602
a(S'E3'
p5603
g7
S'E4'
p5604
S'C#3'
p5605
I1
tp5606
a(g7
g7
g7
g7
I2
tp5607
a(g7
S'E4'
p5608
S'D4'
p5609
S'B2'
p5610
I3
tp5611
a(g7
g7
g7
g7
I4
tp5612
a(g4
S'A4'
p5613
S'C#4'
p5614
S'A2'
p5615
I1
tp5616
a(g7
g7
g7
g7
I2
tp5617
a(g7
S'G4'
p5618
S'E4'
p5619
g7
I3
tp5620
a(g7
g7
g7
g7
I4
tp5621
a(g7
S'F#4'
p5622
g7
g7
I1
tp5623
a(g7
g7
g7
g7
I2
tp5624
a(g7
g7
S'D4'
p5625
S'A3'
p5626
I3
tp5627
a(g7
g7
g7
g7
I4
tp5628
a(g7
S'E4'
p5629
g7
S'A3'
p5630
I1
tp5631
a(g7
g7
g7
g7
I2
tp5632
a(g7
g7
S'C#4'
p5633
S'A3'
p5634
I3
tp5635
a(g7
g7
g7
g7
I4
tp5636
a(g7
S'F#4'
p5637
S'C4'
p5638
S'E-3'
p5639
I1
tp5640
a(g7
g7
g7
g7
I2
tp5641
a(g7
S'G#4'
p5642
S'B3'
p5643
S'E3'
p5644
I3
tp5645
a(g7
g7
g7
g7
I4
tp5646
a(g7
S'A4'
p5647
S'A3'
p5648
S'F3'
p5649
I1
tp5650
a(g7
g7
g7
g7
I2
tp5651
a(g7
g7
S'C4'
p5652
g7
I3
tp5653
a(g7
g7
g7
g7
I4
tp5654
a(g7
g7
S'D4'
p5655
g7
I1
tp5656
a(g7
g7
g7
g7
I2
tp5657
a(S'B3'
p5658
g7
S'E4'
p5659
S'B2'
p5660
I3
tp5661
a(g7
g7
S'F4'
p5662
g7
I4
tp5663
a(S'B3'
p5664
S'G#4'
p5665
S'E4'
p5666
S'E3'
p5667
I1
tp5668
a(g7
g7
g7
g7
I2
tp5669
a(S'B3'
p5670
g7
g7
S'D3'
p5671
I3
tp5672
a(g7
g7
g7
g7
I4
tp5673
a(S'E3'
p5674
S'A4'
p5675
g4
S'C#3'
p5676
I1
tp5677
a(g7
g7
g7
g7
I2
tp5678
a(g7
S'A5'
p5679
g7
S'A2'
p5680
I3
tp5681
a(g7
g7
g7
g7
I4
tp5682
a(S'F#3'
p5683
S'A5'
p5684
g7
S'D3'
p5685
I1
tp5686
a(g7
g7
g7
g7
I2
tp5687
a(g7
S'A5'
p5688
S'F#5'
p5689
S'C#3'
p5690
I3
tp5691
a(g7
g7
g7
g7
I4
tp5692
a(g4
S'D5'
p5693
S'F#5'
p5694
S'B2'
p5695
I1
tp5696
a(g7
g7
g7
g7
I2
tp5697
a(S'D4'
p5698
g7
S'F#5'
p5699
g7
I3
tp5700
a(g7
g7
g7
g7
I4
tp5701
a(S'D4'
p5702
S'F#5'
p5703
S'B4'
p5704
g4
I1
tp5705
a(g7
g7
g7
g7
I2
tp5706
a(S'D4'
p5707
g7
g7
S'B3'
p5708
I3
tp5709
a(g7
g7
g7
g7
I4
tp5710
a(S'G3'
p5711
g7
S'D5'
p5712
S'B3'
p5713
I1
tp5714
a(g7
g7
g7
g7
I2
tp5715
a(g7
S'B4'
p5716
g7
S'B3'
p5717
I3
tp5718
a(g7
g7
g7
g7
I4
tp5719
a(S'B3'
p5720
S'E5'
p5721
g7
S'E3'
p5722
I1
tp5723
a(g7
g7
g7
g7
I2
tp5724
a(g7
S'D5'
p5725
S'G#4'
p5726
g7
I3
tp5727
a(g7
g7
g7
g7
I4
tp5728
a(g7
S'C#5'
p5729
S'C#5'
p5730
S'G3'
p5731
I1
tp5732
a(g7
g7
g7
g7
I2
tp5733
a(S'E3'
p5734
g7
S'B4'
p5735
g7
I3
tp5736
a(g7
g7
g7
g7
I4
tp5737
a(S'A3'
p5738
g7
S'A4'
p5739
g7
I1
tp5740
a(g7
g7
g7
g7
I2
tp5741
a(S'G3'
p5742
g7
g7
S'C#3'
p5743
I3
tp5744
a(g7
g7
g7
g7
I4
tp5745
a(S'F#3'
p5746
S'C5'
p5747
g7
S'F#3'
p5748
I1
tp5749
a(g7
g7
g7
g7
I2
tp5750
a(g7
g7
S'G4'
p5751
S'E3'
p5752
I3
tp5753
a(g7
g7
g7
g7
I4
tp5754
a(g7
g7
S'F#4'
p5755
S'D3'
p5756
I1
tp5757
a(g7
g7
g7
g7
I2
tp5758
a(S'A3'
p5759
g7
S'E4'
p5760
g7
I3
tp5761
a(g7
g7
g7
g7
I4
tp5762
a(S'D4'
p5763
g7
S'F#4'
p5764
g7
I1
tp5765
a(g7
g7
g7
g7
I2
tp5766
a(S'C4'
p5767
S'A4'
p5768
g7
g7
I3
tp5769
a(g7
g7
g7
g7
I4
tp5770
a(S'B3'
p5771
S'D5'
p5772
g7
g4
I1
tp5773
a(g7
g7
g7
g7
I2
tp5774
a(S'A3'
p5775
S'C5'
p5776
g7
S'D3'
p5777
I3
tp5778
a(g7
g7
g7
g7
I4
tp5779
a(S'G3'
p5780
S'B4'
p5781
g4
S'G3'
p5782
I1
tp5783
a(g7
g7
g7
g7
I2
tp5784
a(g7
g7
S'D4'
p5785
S'F#3'
p5786
I3
tp5787
a(g7
g7
g7
g7
I4
tp5788
a(g7
g7
S'G4'
p5789
S'E3'
p5790
I1
tp5791
a(g7
g7
g7
g7
I2
tp5792
a(g7
g7
S'F#4'
p5793
S'D3'
p5794
I3
tp5795
a(g7
g7
g7
g7
I4
tp5796
a(g7
g7
S'E4'
p5797
S'C#3'
p5798
I1
tp5799
a(g7
g7
g7
g7
I2
tp5800
a(S'E3'
p5801
g7
S'D4'
p5802
g7
I3
tp5803
a(g7
g7
g7
g7
I4
tp5804
a(S'A3'
p5805
S'A4'
p5806
S'C#4'
p5807
g4
I1
tp5808
a(g7
g7
g7
g7
I2
tp5809
a(S'G3'
p5810
g7
g7
S'A2'
p5811
I3
tp5812
a(g7
g7
g7
g7
I4
tp5813
a(S'F#3'
p5814
g7
g4
S'D3'
p5815
I1
tp5816
a(g7
g7
g7
g7
I2
tp5817
a(g7
g7
S'A3'
p5818
S'C3'
p5819
I3
tp5820
a(g7
g7
g7
g7
I4
tp5821
a(g7
g7
S'D4'
p5822
S'B2'
p5823
I1
tp5824
a(g7
g7
g7
g7
I2
tp5825
a(g7
g7
S'C4'
p5826
S'A2'
p5827
I3
tp5828
a(g7
g7
g7
g7
I4
tp5829
a(g7
g7
S'B3'
p5830
S'G2'
p5831
I1
tp5832
a(g7
g7
g7
g7
I2
tp5833
a(S'E-3'
p5834
g7
g7
g7
I3
tp5835
a(g7
g7
g7
g7
I4
tp5836
a(S'E3'
p5837
S'G4'
p5838
g7
g7
I1
tp5839
a(g7
g7
g7
g7
I2
tp5840
a(S'D3'
p5841
g7
S'B3'
p5842
g7
I3
tp5843
a(g7
g7
g7
g7
I4
tp5844
a(S'C#3'
p5845
g7
S'E4'
p5846
S'A2'
p5847
I1
tp5848
a(g7
g7
g7
g7
I2
tp5849
a(S'D3'
p5850
S'E4'
p5851
S'D4'
p5852
g7
I3
tp5853
a(g7
g7
g7
g7
I4
tp5854
a(S'E3'
p5855
S'A4'
p5856
S'C#4'
p5857
g7
I1
tp5858
a(g7
g7
g7
g7
I2
tp5859
a(g7
S'G4'
p5860
S'E4'
p5861
g7
I3
tp5862
a(g7
g7
g7
g7
I4
tp5863
a(g4
S'F#4'
p5864
g7
g7
I1
tp5865
a(g7
g7
g7
g7
I2
tp5866
a(S'D3'
p5867
g7
S'D4'
p5868
g7
I3
tp5869
a(g7
g7
g7
g7
I4
tp5870
a(S'A3'
p5871
S'E4'
p5872
g7
g7
I1
tp5873
a(g7
g7
g7
g7
I2
tp5874
a(S'G3'
p5875
g7
S'C#4'
p5876
g7
I3
tp5877
a(g7
g7
g7
g7
I4
tp5878
a(S'F#3'
p5879
S'D4'
p5880
S'D4'
p5881
S'D2'
p5882
I1
tp5883
a(g7
g7
g7
g7
I2
tp5884
a(g7
g7
g7
g7
I3
tp5885
a(g7
g7
g7
g7
I4
tp5886
a(g7
g7
g7
g7
I1
tp5887
a(g7
g7
g7
g7
I2
tp5888
a(g7
g7
g7
g7
I3
tp5889
a(g7
g7
g7
g7
I4
tp5890
a(g2130
g2130
g2130
g2130
g2130
tp5891
a(g2130
g2130
g2130
g2130
g2130
tp5892
a(g2130
g2130
g2130
g2130
g2130
tp5893
a(g2130
g2130
g2130
g2130
g2130
tp5894
a(g2130
g2130
g2130
g2130
g2130
tp5895
a(g2130
g2130
g2130
g2130
g2130
tp5896
a(g2130
g2130
g2130
g2130
g2130
tp5897
a(g2130
g2130
g2130
g2130
g2130
tp5898
a(g2130
g2130
g2130
g2130
g2130
tp5899
a(g2130
g2130
g2130
g2130
g2130
tp5900
a(g2130
g2130
g2130
g2130
g2130
tp5901
a(g2130
g2130
g2130
g2130
g2130
tp5902
a(g2130
g2130
g2130
g2130
g2130
tp5903
a(g2130
g2130
g2130
g2130
g2130
tp5904
a(g2130
g2130
g2130
g2130
g2130
tp5905
a(g2130
g2130
g2130
g2130
g2130
tp5906
a(g2130
g2130
g2130
g2130
g2130
tp5907
a(g2130
g2130
g2130
g2130
g2130
tp5908
a(g2130
g2130
g2130
g2130
g2130
tp5909
a(g2130
g2130
g2130
g2130
g2130
tp5910
a(g2130
g2130
g2130
g2130
g2130
tp5911
a(g2130
g2130
g2130
g2130
g2130
tp5912
a(g2130
g2130
g2130
g2130
g2130
tp5913
a(g2130
g2130
g2130
g2130
g2130
tp5914
a(g2130
g2130
g2130
g2130
g2130
tp5915
a(g2130
g2130
g2130
g2130
g2130
tp5916
a(g2130
g2130
g2130
g2130
g2130
tp5917
a(g2130
g2130
g2130
g2130
g2130
tp5918
a(g2130
g2130
g2130
g2130
g2130
tp5919
a(g2130
g2130
g2130
g2130
g2130
tp5920
a(g2130
g2130
g2130
g2130
g2130
tp5921
a(g2130
g2130
g2130
g2130
g2130
tp5922
a(g2130
g2130
g2130
g2130
g2130
tp5923
a(g2130
g2130
g2130
g2130
g2130
tp5924
a(g2130
g2130
g2130
g2130
g2130
tp5925
a(g2130
g2130
g2130
g2130
g2130
tp5926
a(g2130
g2130
g2130
g2130
g2130
tp5927
a(g2130
g2130
g2130
g2130
g2130
tp5928
a(g2130
g2130
g2130
g2130
g2130
tp5929
a(g2130
g2130
g2130
g2130
g2130
tp5930
a(g2130
g2130
g2130
g2130
g2130
tp5931
a(g2130
g2130
g2130
g2130
g2130
tp5932
a(g2130
g2130
g2130
g2130
g2130
tp5933
a(g2130
g2130
g2130
g2130
g2130
tp5934
a(g2130
g2130
g2130
g2130
g2130
tp5935
a(g2130
g2130
g2130
g2130
g2130
tp5936
a(g2130
g2130
g2130
g2130
g2130
tp5937
a(g2130
g2130
g2130
g2130
g2130
tp5938
a(g2130
g2130
g2130
g2130
g2130
tp5939
a(g2130
g2130
g2130
g2130
g2130
tp5940
a(g2130
g2130
g2130
g2130
g2130
tp5941
a(g2130
g2130
g2130
g2130
g2130
tp5942
a(g2130
g2130
g2130
g2130
g2130
tp5943
a(g2130
g2130
g2130
g2130
g2130
tp5944
a(g2130
g2130
g2130
g2130
g2130
tp5945
a(g2130
g2130
g2130
g2130
g2130
tp5946
a(g2130
g2130
g2130
g2130
g2130
tp5947
a(g2130
g2130
g2130
g2130
g2130
tp5948
a(g2130
g2130
g2130
g2130
g2130
tp5949
a(g2130
g2130
g2130
g2130
g2130
tp5950
a(g2130
g2130
g2130
g2130
g2130
tp5951
a(g2130
g2130
g2130
g2130
g2130
tp5952
a(g2130
g2130
g2130
g2130
g2130
tp5953
a(g2130
g2130
g2130
g2130
g2130
tp5954
a(g2130
g2130
g2130
g2130
g2130
tp5955
a(g2130
g2130
g2130
g2130
g2130
tp5956
a(g2130
g2130
g2130
g2130
g2130
tp5957
a(g2130
g2130
g2130
g2130
g2130
tp5958
a(g2130
g2130
g2130
g2130
g2130
tp5959
a(g2130
g2130
g2130
g2130
g2130
tp5960
a(g2130
g2130
g2130
g2130
g2130
tp5961
a(g2130
g2130
g2130
g2130
g2130
tp5962
a(g2130
g2130
g2130
g2130
g2130
tp5963
a(g2130
g2130
g2130
g2130
g2130
tp5964
a(g2130
g2130
g2130
g2130
g2130
tp5965
a(g2130
g2130
g2130
g2130
g2130
tp5966
a(g2130
g2130
g2130
g2130
g2130
tp5967
a(g2130
g2130
g2130
g2130
g2130
tp5968
a(g2130
g2130
g2130
g2130
g2130
tp5969
a(g2130
g2130
g2130
g2130
g2130
tp5970
a(g2130
g2130
g2130
g2130
g2130
tp5971
a(g2130
g2130
g2130
g2130
g2130
tp5972
a(g2130
g2130
g2130
g2130
g2130
tp5973
a(g2130
g2130
g2130
g2130
g2130
tp5974
a(g2130
g2130
g2130
g2130
g2130
tp5975
a(g2130
g2130
g2130
g2130
g2130
tp5976
a(g2130
g2130
g2130
g2130
g2130
tp5977
a(g2130
g2130
g2130
g2130
g2130
tp5978
a(g2130
g2130
g2130
g2130
g2130
tp5979
a(g2130
g2130
g2130
g2130
g2130
tp5980
a(g2130
g2130
g2130
g2130
g2130
tp5981
a(g2130
g2130
g2130
g2130
g2130
tp5982
a(g2130
g2130
g2130
g2130
g2130
tp5983
a(g2130
g2130
g2130
g2130
g2130
tp5984
a(g2130
g2130
g2130
g2130
g2130
tp5985
a(g2130
g2130
g2130
g2130
g2130
tp5986
a(g2130
g2130
g2130
g2130
g2130
tp5987
a(g2130
g2130
g2130
g2130
g2130
tp5988
a(g2130
g2130
g2130
g2130
g2130
tp5989
a(g2130
g2130
g2130
g2130
g2130
tp5990
a(g2130
g2130
g2130
g2130
g2130
tp5991
a(g2130
g2130
g2130
g2130
g2130
tp5992
a(g2130
g2130
g2130
g2130
g2130
tp5993
a(g2130
g2130
g2130
g2130
g2130
tp5994
a(g2130
g2130
g2130
g2130
g2130
tp5995
a(g2130
g2130
g2130
g2130
g2130
tp5996
a(g2130
g2130
g2130
g2130
g2130
tp5997
a(g2130
g2130
g2130
g2130
g2130
tp5998
a(g2130
g2130
g2130
g2130
g2130
tp5999
a(g2130
g2130
g2130
g2130
g2130
tp6000
a(g2130
g2130
g2130
g2130
g2130
tp6001
a(g2130
g2130
g2130
g2130
g2130
tp6002
a(g2130
g2130
g2130
g2130
g2130
tp6003
a(g2130
g2130
g2130
g2130
g2130
tp6004
a(g2130
g2130
g2130
g2130
g2130
tp6005
a(g2130
g2130
g2130
g2130
g2130
tp6006
a(g2130
g2130
g2130
g2130
g2130
tp6007
a(g2130
g2130
g2130
g2130
g2130
tp6008
a(g2130
g2130
g2130
g2130
g2130
tp6009
a(g2130
g2130
g2130
g2130
g2130
tp6010
a(g2130
g2130
g2130
g2130
g2130
tp6011
a(g2130
g2130
g2130
g2130
g2130
tp6012
a(g2130
g2130
g2130
g2130
g2130
tp6013
a(g2130
g2130
g2130
g2130
g2130
tp6014
a(g2130
g2130
g2130
g2130
g2130
tp6015
a(g2130
g2130
g2130
g2130
g2130
tp6016
a(g2130
g2130
g2130
g2130
g2130
tp6017
a(g2130
g2130
g2130
g2130
g2130
tp6018
a(g2130
g2130
g2130
g2130
g2130
tp6019
a(g2130
g2130
g2130
g2130
g2130
tp6020
a(g2130
g2130
g2130
g2130
g2130
tp6021
a(g2130
g2130
g2130
g2130
g2130
tp6022
a(g2130
g2130
g2130
g2130
g2130
tp6023
a(g2130
g2130
g2130
g2130
g2130
tp6024
a(g2130
g2130
g2130
g2130
g2130
tp6025
a(g2130
g2130
g2130
g2130
g2130
tp6026
a(g2130
g2130
g2130
g2130
g2130
tp6027
a(g2130
g2130
g2130
g2130
g2130
tp6028
a(g2130
g2130
g2130
g2130
g2130
tp6029
a(g2130
g2130
g2130
g2130
g2130
tp6030
a(g2130
g2130
g2130
g2130
g2130
tp6031
a(g2130
g2130
g2130
g2130
g2130
tp6032
a(g2130
g2130
g2130
g2130
g2130
tp6033
a(g2130
g2130
g2130
g2130
g2130
tp6034
a(g2130
g2130
g2130
g2130
g2130
tp6035
a(g2130
g2130
g2130
g2130
g2130
tp6036
a(g2130
g2130
g2130
g2130
g2130
tp6037
a(g2130
g2130
g2130
g2130
g2130
tp6038
a(g2130
g2130
g2130
g2130
g2130
tp6039
a(g2130
g2130
g2130
g2130
g2130
tp6040
a(g2130
g2130
g2130
g2130
g2130
tp6041
a(g2130
g2130
g2130
g2130
g2130
tp6042
a(g2130
g2130
g2130
g2130
g2130
tp6043
a(g2130
g2130
g2130
g2130
g2130
tp6044
a(g2130
g2130
g2130
g2130
g2130
tp6045
a(g2130
g2130
g2130
g2130
g2130
tp6046
a(g2130
g2130
g2130
g2130
g2130
tp6047
a(g2130
g2130
g2130
g2130
g2130
tp6048
a(g2130
g2130
g2130
g2130
g2130
tp6049
a(g2130
g2130
g2130
g2130
g2130
tp6050
a(g2130
g2130
g2130
g2130
g2130
tp6051
a(g2130
g2130
g2130
g2130
g2130
tp6052
a(g2130
g2130
g2130
g2130
g2130
tp6053
a(g2130
g2130
g2130
g2130
g2130
tp6054
a(g2130
g2130
g2130
g2130
g2130
tp6055
a(g2130
g2130
g2130
g2130
g2130
tp6056
a(g2130
g2130
g2130
g2130
g2130
tp6057
a(g2130
g2130
g2130
g2130
g2130
tp6058
a(g2130
g2130
g2130
g2130
g2130
tp6059
a(g2130
g2130
g2130
g2130
g2130
tp6060
a(g2130
g2130
g2130
g2130
g2130
tp6061
a(g2130
g2130
g2130
g2130
g2130
tp6062
a(g2130
g2130
g2130
g2130
g2130
tp6063
a(g2130
g2130
g2130
g2130
g2130
tp6064
a(g2130
g2130
g2130
g2130
g2130
tp6065
a(g2130
g2130
g2130
g2130
g2130
tp6066
a(g2130
g2130
g2130
g2130
g2130
tp6067
a(g2130
g2130
g2130
g2130
g2130
tp6068
a(g2130
g2130
g2130
g2130
g2130
tp6069
a(g2130
g2130
g2130
g2130
g2130
tp6070
a(g2130
g2130
g2130
g2130
g2130
tp6071
a(g2130
g2130
g2130
g2130
g2130
tp6072
a(g2130
g2130
g2130
g2130
g2130
tp6073
a(g2130
g2130
g2130
g2130
g2130
tp6074
a(g2130
g2130
g2130
g2130
g2130
tp6075
a(g2130
g2130
g2130
g2130
g2130
tp6076
a(g2130
g2130
g2130
g2130
g2130
tp6077
a(g2130
g2130
g2130
g2130
g2130
tp6078
a(g2130
g2130
g2130
g2130
g2130
tp6079
a(g2130
g2130
g2130
g2130
g2130
tp6080
a(g2130
g2130
g2130
g2130
g2130
tp6081
a(g2130
g2130
g2130
g2130
g2130
tp6082
a(g2130
g2130
g2130
g2130
g2130
tp6083
a(g2130
g2130
g2130
g2130
g2130
tp6084
a(g2130
g2130
g2130
g2130
g2130
tp6085
a(g2130
g2130
g2130
g2130
g2130
tp6086
a(g2130
g2130
g2130
g2130
g2130
tp6087
a(g2130
g2130
g2130
g2130
g2130
tp6088
a(g2130
g2130
g2130
g2130
g2130
tp6089
a(g2130
g2130
g2130
g2130
g2130
tp6090
a(g2130
g2130
g2130
g2130
g2130
tp6091
a(g2130
g2130
g2130
g2130
g2130
tp6092
a(g2130
g2130
g2130
g2130
g2130
tp6093
a(g2130
g2130
g2130
g2130
g2130
tp6094
a(g2130
g2130
g2130
g2130
g2130
tp6095
a(g2130
g2130
g2130
g2130
g2130
tp6096
a(g2130
g2130
g2130
g2130
g2130
tp6097
a(g2130
g2130
g2130
g2130
g2130
tp6098
a(g2130
g2130
g2130
g2130
g2130
tp6099
a(g2130
g2130
g2130
g2130
g2130
tp6100
a(g2130
g2130
g2130
g2130
g2130
tp6101
a(g2130
g2130
g2130
g2130
g2130
tp6102
a(g2130
g2130
g2130
g2130
g2130
tp6103
a(g2130
g2130
g2130
g2130
g2130
tp6104
a(g2130
g2130
g2130
g2130
g2130
tp6105
a(g2130
g2130
g2130
g2130
g2130
tp6106
a(g2130
g2130
g2130
g2130
g2130
tp6107
a(g2130
g2130
g2130
g2130
g2130
tp6108
a(g2130
g2130
g2130
g2130
g2130
tp6109
a(g2130
g2130
g2130
g2130
g2130
tp6110
a(g2130
g2130
g2130
g2130
g2130
tp6111
a(g2130
g2130
g2130
g2130
g2130
tp6112
a(g2130
g2130
g2130
g2130
g2130
tp6113
a(g2130
g2130
g2130
g2130
g2130
tp6114
a(g2130
g2130
g2130
g2130
g2130
tp6115
a(g2130
g2130
g2130
g2130
g2130
tp6116
a(g2130
g2130
g2130
g2130
g2130
tp6117
a(g2130
g2130
g2130
g2130
g2130
tp6118
a(g2130
g2130
g2130
g2130
g2130
tp6119
a(g2130
g2130
g2130
g2130
g2130
tp6120
a(g2130
g2130
g2130
g2130
g2130
tp6121
a(g2130
g2130
g2130
g2130
g2130
tp6122
a(g2130
g2130
g2130
g2130
g2130
tp6123
a(g2130
g2130
g2130
g2130
g2130
tp6124
a(g2130
g2130
g2130
g2130
g2130
tp6125
a(g2130
g2130
g2130
g2130
g2130
tp6126
a(g2130
g2130
g2130
g2130
g2130
tp6127
a(g2130
g2130
g2130
g2130
g2130
tp6128
a(g2130
g2130
g2130
g2130
g2130
tp6129
a(g2130
g2130
g2130
g2130
g2130
tp6130
a(g2130
g2130
g2130
g2130
g2130
tp6131
a(g2130
g2130
g2130
g2130
g2130
tp6132
a(g2130
g2130
g2130
g2130
g2130
tp6133
a(g2130
g2130
g2130
g2130
g2130
tp6134
a(g2130
g2130
g2130
g2130
g2130
tp6135
a(g2130
g2130
g2130
g2130
g2130
tp6136
a(g2130
g2130
g2130
g2130
g2130
tp6137
a(g2130
g2130
g2130
g2130
g2130
tp6138
a(g2130
g2130
g2130
g2130
g2130
tp6139
a(g2130
g2130
g2130
g2130
g2130
tp6140
a(g2130
g2130
g2130
g2130
g2130
tp6141
a(g2130
g2130
g2130
g2130
g2130
tp6142
a(g2130
g2130
g2130
g2130
g2130
tp6143
a(g2130
g2130
g2130
g2130
g2130
tp6144
a(g2130
g2130
g2130
g2130
g2130
tp6145
a(g2130
g2130
g2130
g2130
g2130
tp6146
a(g2130
g2130
g2130
g2130
g2130
tp6147
a(g2130
g2130
g2130
g2130
g2130
tp6148
a(g2130
g2130
g2130
g2130
g2130
tp6149
a(g2130
g2130
g2130
g2130
g2130
tp6150
a(g2130
g2130
g2130
g2130
g2130
tp6151
a(g2130
g2130
g2130
g2130
g2130
tp6152
a(g2130
g2130
g2130
g2130
g2130
tp6153
a(g2130
g2130
g2130
g2130
g2130
tp6154
a(g2130
g2130
g2130
g2130
g2130
tp6155
a(g2130
g2130
g2130
g2130
g2130
tp6156
a(g2130
g2130
g2130
g2130
g2130
tp6157
a(g2130
g2130
g2130
g2130
g2130
tp6158
a(g2130
g2130
g2130
g2130
g2130
tp6159
a(g2130
g2130
g2130
g2130
g2130
tp6160
a(g2130
g2130
g2130
g2130
g2130
tp6161
a(g2130
g2130
g2130
g2130
g2130
tp6162
a(g2130
g2130
g2130
g2130
g2130
tp6163
a(g2130
g2130
g2130
g2130
g2130
tp6164
a(g2130
g2130
g2130
g2130
g2130
tp6165
a(g2130
g2130
g2130
g2130
g2130
tp6166
a(g2130
g2130
g2130
g2130
g2130
tp6167
a(g2130
g2130
g2130
g2130
g2130
tp6168
a(g2130
g2130
g2130
g2130
g2130
tp6169
a(g2130
g2130
g2130
g2130
g2130
tp6170
a(g2130
g2130
g2130
g2130
g2130
tp6171
a(g2130
g2130
g2130
g2130
g2130
tp6172
a(g2130
g2130
g2130
g2130
g2130
tp6173
a(g2130
g2130
g2130
g2130
g2130
tp6174
a(g2130
g2130
g2130
g2130
g2130
tp6175
a(g2130
g2130
g2130
g2130
g2130
tp6176
a(g2130
g2130
g2130
g2130
g2130
tp6177
a(g2130
g2130
g2130
g2130
g2130
tp6178
a(g2130
g2130
g2130
g2130
g2130
tp6179
a(g2130
g2130
g2130
g2130
g2130
tp6180
a(g2130
g2130
g2130
g2130
g2130
tp6181
a(g2130
g2130
g2130
g2130
g2130
tp6182
a(g2130
g2130
g2130
g2130
g2130
tp6183
a(g2130
g2130
g2130
g2130
g2130
tp6184
a(g2130
g2130
g2130
g2130
g2130
tp6185
a(g2130
g2130
g2130
g2130
g2130
tp6186
a(g2130
g2130
g2130
g2130
g2130
tp6187
a(g2130
g2130
g2130
g2130
g2130
tp6188
a(g2130
g2130
g2130
g2130
g2130
tp6189
a(g2130
g2130
g2130
g2130
g2130
tp6190
a(g2130
g2130
g2130
g2130
g2130
tp6191
a(g2130
g2130
g2130
g2130
g2130
tp6192
a(g2130
g2130
g2130
g2130
g2130
tp6193
a(g2130
g2130
g2130
g2130
g2130
tp6194
a(g2130
g2130
g2130
g2130
g2130
tp6195
a(g2130
g2130
g2130
g2130
g2130
tp6196
a(g2130
g2130
g2130
g2130
g2130
tp6197
a(g2130
g2130
g2130
g2130
g2130
tp6198
a(g2130
g2130
g2130
g2130
g2130
tp6199
a(g2130
g2130
g2130
g2130
g2130
tp6200
a(g2130
g2130
g2130
g2130
g2130
tp6201
a(g2130
g2130
g2130
g2130
g2130
tp6202
a(g2130
g2130
g2130
g2130
g2130
tp6203
a(g2130
g2130
g2130
g2130
g2130
tp6204
a(g2130
g2130
g2130
g2130
g2130
tp6205
a(g2130
g2130
g2130
g2130
g2130
tp6206
a(g2130
g2130
g2130
g2130
g2130
tp6207
a(g2130
g2130
g2130
g2130
g2130
tp6208
a(g2130
g2130
g2130
g2130
g2130
tp6209
a(g2130
g2130
g2130
g2130
g2130
tp6210
a(g2130
g2130
g2130
g2130
g2130
tp6211
a(g2130
g2130
g2130
g2130
g2130
tp6212
a(g2130
g2130
g2130
g2130
g2130
tp6213
a(g2130
g2130
g2130
g2130
g2130
tp6214
a(g2130
g2130
g2130
g2130
g2130
tp6215
a(g2130
g2130
g2130
g2130
g2130
tp6216
a(g2130
g2130
g2130
g2130
g2130
tp6217
a(g2130
g2130
g2130
g2130
g2130
tp6218
a(g2130
g2130
g2130
g2130
g2130
tp6219
a(g2130
g2130
g2130
g2130
g2130
tp6220
a(g2130
g2130
g2130
g2130
g2130
tp6221
a(g2130
g2130
g2130
g2130
g2130
tp6222
a(g2130
g2130
g2130
g2130
g2130
tp6223
a(g2130
g2130
g2130
g2130
g2130
tp6224
a(g2130
g2130
g2130
g2130
g2130
tp6225
a(g2130
g2130
g2130
g2130
g2130
tp6226
a(g2130
g2130
g2130
g2130
g2130
tp6227
a(g2130
g2130
g2130
g2130
g2130
tp6228
a(g2130
g2130
g2130
g2130
g2130
tp6229
a(g2130
g2130
g2130
g2130
g2130
tp6230
a(g2130
g2130
g2130
g2130
g2130
tp6231
a(g2130
g2130
g2130
g2130
g2130
tp6232
a(g2130
g2130
g2130
g2130
g2130
tp6233
a(g2130
g2130
g2130
g2130
g2130
tp6234
a(g2130
g2130
g2130
g2130
g2130
tp6235
a(g2130
g2130
g2130
g2130
g2130
tp6236
a(g2130
g2130
g2130
g2130
g2130
tp6237
a(g2130
g2130
g2130
g2130
g2130
tp6238
a(g2130
g2130
g2130
g2130
g2130
tp6239
a(g2130
g2130
g2130
g2130
g2130
tp6240
a(g2130
g2130
g2130
g2130
g2130
tp6241
a(g2130
g2130
g2130
g2130
g2130
tp6242
a(g2130
g2130
g2130
g2130
g2130
tp6243
a(g2130
g2130
g2130
g2130
g2130
tp6244
a(g2130
g2130
g2130
g2130
g2130
tp6245
a(g2130
g2130
g2130
g2130
g2130
tp6246
a(g2130
g2130
g2130
g2130
g2130
tp6247
a(g2130
g2130
g2130
g2130
g2130
tp6248
a(g2130
g2130
g2130
g2130
g2130
tp6249
a(g2130
g2130
g2130
g2130
g2130
tp6250
a(g2130
g2130
g2130
g2130
g2130
tp6251
a(g2130
g2130
g2130
g2130
g2130
tp6252
a(g2130
g2130
g2130
g2130
g2130
tp6253
a(g2130
g2130
g2130
g2130
g2130
tp6254
a(g2130
g2130
g2130
g2130
g2130
tp6255
a(g2130
g2130
g2130
g2130
g2130
tp6256
a(g2130
g2130
g2130
g2130
g2130
tp6257
a(g2130
g2130
g2130
g2130
g2130
tp6258
a(g2130
g2130
g2130
g2130
g2130
tp6259
a(g2130
g2130
g2130
g2130
g2130
tp6260
a(g2130
g2130
g2130
g2130
g2130
tp6261
a(g2130
g2130
g2130
g2130
g2130
tp6262
a(g2130
g2130
g2130
g2130
g2130
tp6263
a(g2130
g2130
g2130
g2130
g2130
tp6264
a(g2130
g2130
g2130
g2130
g2130
tp6265
a(g2130
g2130
g2130
g2130
g2130
tp6266
a(g2130
g2130
g2130
g2130
g2130
tp6267
a(g2130
g2130
g2130
g2130
g2130
tp6268
a(g2130
g2130
g2130
g2130
g2130
tp6269
a(g2130
g2130
g2130
g2130
g2130
tp6270
a(g2130
g2130
g2130
g2130
g2130
tp6271
a(g2130
g2130
g2130
g2130
g2130
tp6272
a(g2130
g2130
g2130
g2130
g2130
tp6273
a(g2130
g2130
g2130
g2130
g2130
tp6274
a(g2130
g2130
g2130
g2130
g2130
tp6275
a(g2130
g2130
g2130
g2130
g2130
tp6276
a(g2130
g2130
g2130
g2130
g2130
tp6277
a(g2130
g2130
g2130
g2130
g2130
tp6278
a(g2130
g2130
g2130
g2130
g2130
tp6279
a(g2130
g2130
g2130
g2130
g2130
tp6280
a(g2130
g2130
g2130
g2130
g2130
tp6281
a(g2130
g2130
g2130
g2130
g2130
tp6282
a(g2130
g2130
g2130
g2130
g2130
tp6283
a(g2130
g2130
g2130
g2130
g2130
tp6284
a(g2130
g2130
g2130
g2130
g2130
tp6285
a(g2130
g2130
g2130
g2130
g2130
tp6286
a(g2130
g2130
g2130
g2130
g2130
tp6287
a(g2130
g2130
g2130
g2130
g2130
tp6288
a(g2130
g2130
g2130
g2130
g2130
tp6289
a(g2130
g2130
g2130
g2130
g2130
tp6290
a(g2130
g2130
g2130
g2130
g2130
tp6291
a(g2130
g2130
g2130
g2130
g2130
tp6292
a(g2130
g2130
g2130
g2130
g2130
tp6293
a(g2130
g2130
g2130
g2130
g2130
tp6294
a(g2130
g2130
g2130
g2130
g2130
tp6295
a(g2130
g2130
g2130
g2130
g2130
tp6296
a(g2130
g2130
g2130
g2130
g2130
tp6297
a(g2130
g2130
g2130
g2130
g2130
tp6298
a(g2130
g2130
g2130
g2130
g2130
tp6299
a(g2130
g2130
g2130
g2130
g2130
tp6300
a(g2130
g2130
g2130
g2130
g2130
tp6301
a(g2130
g2130
g2130
g2130
g2130
tp6302
a(g2130
g2130
g2130
g2130
g2130
tp6303
a(g2130
g2130
g2130
g2130
g2130
tp6304
a(g2130
g2130
g2130
g2130
g2130
tp6305
a(g2130
g2130
g2130
g2130
g2130
tp6306
a(g2130
g2130
g2130
g2130
g2130
tp6307
a(g2130
g2130
g2130
g2130
g2130
tp6308
a(g2130
g2130
g2130
g2130
g2130
tp6309
a(g2130
g2130
g2130
g2130
g2130
tp6310
a(g2130
g2130
g2130
g2130
g2130
tp6311
a(g2130
g2130
g2130
g2130
g2130
tp6312
a(g2130
g2130
g2130
g2130
g2130
tp6313
a(g2130
g2130
g2130
g2130
g2130
tp6314
a(g2130
g2130
g2130
g2130
g2130
tp6315
a(g2130
g2130
g2130
g2130
g2130
tp6316
a(g2130
g2130
g2130
g2130
g2130
tp6317
a(g2130
g2130
g2130
g2130
g2130
tp6318
a(g2130
g2130
g2130
g2130
g2130
tp6319
a(g2130
g2130
g2130
g2130
g2130
tp6320
a(g2130
g2130
g2130
g2130
g2130
tp6321
a(g2130
g2130
g2130
g2130
g2130
tp6322
a(g2130
g2130
g2130
g2130
g2130
tp6323
a(g2130
g2130
g2130
g2130
g2130
tp6324
a(g2130
g2130
g2130
g2130
g2130
tp6325
a(g2130
g2130
g2130
g2130
g2130
tp6326
a(g2130
g2130
g2130
g2130
g2130
tp6327
a(g2130
g2130
g2130
g2130
g2130
tp6328
a(g2130
g2130
g2130
g2130
g2130
tp6329
a(g2130
g2130
g2130
g2130
g2130
tp6330
a(g2130
g2130
g2130
g2130
g2130
tp6331
a(g2130
g2130
g2130
g2130
g2130
tp6332
a(g2130
g2130
g2130
g2130
g2130
tp6333
a(g2130
g2130
g2130
g2130
g2130
tp6334
a(g2130
g2130
g2130
g2130
g2130
tp6335
a(g2130
g2130
g2130
g2130
g2130
tp6336
a(g2130
g2130
g2130
g2130
g2130
tp6337
a(g2130
g2130
g2130
g2130
g2130
tp6338
a(g2130
g2130
g2130
g2130
g2130
tp6339
a(g2130
g2130
g2130
g2130
g2130
tp6340
a(g2130
g2130
g2130
g2130
g2130
tp6341
a(g2130
g2130
g2130
g2130
g2130
tp6342
a(g2130
g2130
g2130
g2130
g2130
tp6343
a(g2130
g2130
g2130
g2130
g2130
tp6344
a(g2130
g2130
g2130
g2130
g2130
tp6345
a(g2130
g2130
g2130
g2130
g2130
tp6346
a(g2130
g2130
g2130
g2130
g2130
tp6347
a(g2130
g2130
g2130
g2130
g2130
tp6348
a(g2130
g2130
g2130
g2130
g2130
tp6349
a(g2130
g2130
g2130
g2130
g2130
tp6350
a(g2130
g2130
g2130
g2130
g2130
tp6351
a(g2130
g2130
g2130
g2130
g2130
tp6352
a(g2130
g2130
g2130
g2130
g2130
tp6353
a(g2130
g2130
g2130
g2130
g2130
tp6354
a(g2130
g2130
g2130
g2130
g2130
tp6355
a(g2130
g2130
g2130
g2130
g2130
tp6356
a(g2130
g2130
g2130
g2130
g2130
tp6357
a(g2130
g2130
g2130
g2130
g2130
tp6358
a(g2130
g2130
g2130
g2130
g2130
tp6359
a(g2130
g2130
g2130
g2130
g2130
tp6360
a(g2130
g2130
g2130
g2130
g2130
tp6361
a(g2130
g2130
g2130
g2130
g2130
tp6362
a(g2130
g2130
g2130
g2130
g2130
tp6363
a(g2130
g2130
g2130
g2130
g2130
tp6364
a(g2130
g2130
g2130
g2130
g2130
tp6365
a(g2130
g2130
g2130
g2130
g2130
tp6366
a(g2130
g2130
g2130
g2130
g2130
tp6367
a(g2130
g2130
g2130
g2130
g2130
tp6368
a(g2130
g2130
g2130
g2130
g2130
tp6369
a(g2130
g2130
g2130
g2130
g2130
tp6370
a(g2130
g2130
g2130
g2130
g2130
tp6371
a(g2130
g2130
g2130
g2130
g2130
tp6372
a(g2130
g2130
g2130
g2130
g2130
tp6373
a(g2130
g2130
g2130
g2130
g2130
tp6374
a(g2130
g2130
g2130
g2130
g2130
tp6375
a(g2130
g2130
g2130
g2130
g2130
tp6376
a(g2130
g2130
g2130
g2130
g2130
tp6377
a(g2130
g2130
g2130
g2130
g2130
tp6378
a(g2130
g2130
g2130
g2130
g2130
tp6379
a(g2130
g2130
g2130
g2130
g2130
tp6380
a(g2130
g2130
g2130
g2130
g2130
tp6381
a(g2130
g2130
g2130
g2130
g2130
tp6382
a(g2130
g2130
g2130
g2130
g2130
tp6383
a(g2130
g2130
g2130
g2130
g2130
tp6384
a(g2130
g2130
g2130
g2130
g2130
tp6385
a(g2130
g2130
g2130
g2130
g2130
tp6386
a(g2130
g2130
g2130
g2130
g2130
tp6387
a(g2130
g2130
g2130
g2130
g2130
tp6388
a(g2130
g2130
g2130
g2130
g2130
tp6389
a(g2130
g2130
g2130
g2130
g2130
tp6390
a(g2130
g2130
g2130
g2130
g2130
tp6391
a(g2130
g2130
g2130
g2130
g2130
tp6392
a(g2130
g2130
g2130
g2130
g2130
tp6393
a(g2130
g2130
g2130
g2130
g2130
tp6394
a(g2130
g2130
g2130
g2130
g2130
tp6395
a(g2130
g2130
g2130
g2130
g2130
tp6396
a(g2130
g2130
g2130
g2130
g2130
tp6397
a(g2130
g2130
g2130
g2130
g2130
tp6398
a(g2130
g2130
g2130
g2130
g2130
tp6399
a(g2130
g2130
g2130
g2130
g2130
tp6400
a(g2130
g2130
g2130
g2130
g2130
tp6401
a(g2130
g2130
g2130
g2130
g2130
tp6402
a(g2130
g2130
g2130
g2130
g2130
tp6403
a(g2130
g2130
g2130
g2130
g2130
tp6404
a(g2130
g2130
g2130
g2130
g2130
tp6405
a(g2130
g2130
g2130
g2130
g2130
tp6406
a(g2130
g2130
g2130
g2130
g2130
tp6407
a(g2130
g2130
g2130
g2130
g2130
tp6408
a(g2130
g2130
g2130
g2130
g2130
tp6409
a(g2130
g2130
g2130
g2130
g2130
tp6410
a(g2130
g2130
g2130
g2130
g2130
tp6411
a(g2130
g2130
g2130
g2130
g2130
tp6412
a(g2130
g2130
g2130
g2130
g2130
tp6413
a(g2130
g2130
g2130
g2130
g2130
tp6414
a(g2130
g2130
g2130
g2130
g2130
tp6415
a(g2130
g2130
g2130
g2130
g2130
tp6416
a(g2130
g2130
g2130
g2130
g2130
tp6417
a(g2130
g2130
g2130
g2130
g2130
tp6418
a(g2130
g2130
g2130
g2130
g2130
tp6419
a(g2130
g2130
g2130
g2130
g2130
tp6420
a(g2130
g2130
g2130
g2130
g2130
tp6421
a(g2130
g2130
g2130
g2130
g2130
tp6422
a(g2130
g2130
g2130
g2130
g2130
tp6423
a(g2130
g2130
g2130
g2130
g2130
tp6424
a(g2130
g2130
g2130
g2130
g2130
tp6425
a(g2130
g2130
g2130
g2130
g2130
tp6426
a(g2130
g2130
g2130
g2130
g2130
tp6427
a(g2130
g2130
g2130
g2130
g2130
tp6428
a(g2130
g2130
g2130
g2130
g2130
tp6429
a(g2130
g2130
g2130
g2130
g2130
tp6430
a(g2130
g2130
g2130
g2130
g2130
tp6431
a(g2130
g2130
g2130
g2130
g2130
tp6432
a(g2130
g2130
g2130
g2130
g2130
tp6433
a(g2130
g2130
g2130
g2130
g2130
tp6434
a(g2130
g2130
g2130
g2130
g2130
tp6435
a(g2130
g2130
g2130
g2130
g2130
tp6436
a(g2130
g2130
g2130
g2130
g2130
tp6437
a(g2130
g2130
g2130
g2130
g2130
tp6438
a(g2130
g2130
g2130
g2130
g2130
tp6439
a(g2130
g2130
g2130
g2130
g2130
tp6440
a(g2130
g2130
g2130
g2130
g2130
tp6441
a(g2130
g2130
g2130
g2130
g2130
tp6442
a(g2130
g2130
g2130
g2130
g2130
tp6443
a(g2130
g2130
g2130
g2130
g2130
tp6444
a(g2130
g2130
g2130
g2130
g2130
tp6445
a(g2130
g2130
g2130
g2130
g2130
tp6446
a(g2130
g2130
g2130
g2130
g2130
tp6447
a(g2130
g2130
g2130
g2130
g2130
tp6448
a(g2130
g2130
g2130
g2130
g2130
tp6449
a(g2130
g2130
g2130
g2130
g2130
tp6450
a(g2130
g2130
g2130
g2130
g2130
tp6451
a(g2130
g2130
g2130
g2130
g2130
tp6452
a(g2130
g2130
g2130
g2130
g2130
tp6453
a(g2130
g2130
g2130
g2130
g2130
tp6454
a(g2130
g2130
g2130
g2130
g2130
tp6455
a(g2130
g2130
g2130
g2130
g2130
tp6456
a(g2130
g2130
g2130
g2130
g2130
tp6457
a(g2130
g2130
g2130
g2130
g2130
tp6458
a(g2130
g2130
g2130
g2130
g2130
tp6459
a(g2130
g2130
g2130
g2130
g2130
tp6460
a(g2130
g2130
g2130
g2130
g2130
tp6461
a(g2130
g2130
g2130
g2130
g2130
tp6462
a(g2130
g2130
g2130
g2130
g2130
tp6463
a(g2130
g2130
g2130
g2130
g2130
tp6464
a(g2130
g2130
g2130
g2130
g2130
tp6465
a(g2130
g2130
g2130
g2130
g2130
tp6466
a(g2130
g2130
g2130
g2130
g2130
tp6467
aasS'X'
p6468
(lp6469
(lp6470
g5
ag7
ag7
ag7
ag7
ag7
ag7
ag7
ag7
ag7
ag7
ag7
ag7
ag7
ag7
ag7
ag23
ag7
ag7
ag7
ag7
ag7
ag7
ag7
ag32
ag7
ag7
ag7
ag7
ag7
ag7
ag7
ag41
ag7
ag7
ag7
ag7
ag7
ag7
ag7
ag50
ag7
ag7
ag7
ag7
ag7
ag7
ag7
ag2130
ag2130
ag2130
ag2130
ag2130
ag2130
ag2130
ag2130
ag2130
ag2130
ag2130
ag2130
ag2130
ag2130
ag2130
ag2130
ag2130
ag2130
ag2130
ag2130
ag2130
ag2130
ag2130
ag2130
ag2130
ag2130
ag2130
ag2130
ag2130
ag2130
ag2130
ag2130
ag2130
ag2130
ag2130
ag2130
ag2130
ag2130
ag2130
ag2130
ag2130
ag2130
ag2130
ag2130
ag2130
ag2130
ag2130
ag2130
ag2130
aa(lp6471
g2133
ag7
ag7
ag7
ag7
ag7
ag7
ag7
ag7
ag7
ag7
ag7
ag7
ag7
ag7
ag7
ag2150
ag7
ag7
ag7
ag7
ag7
ag7
ag7
ag4
ag7
ag7
ag7
ag2163
ag7
ag7
ag7
ag2168
ag7
ag7
ag7
ag2173
ag7
ag7
ag7
ag7
ag7
ag7
ag7
ag2182
ag7
ag7
ag7
ag2187
ag7
ag7
ag7
ag2192
ag7
ag2195
ag7
ag2198
ag7
ag7
ag7
ag2203
ag7
ag7
ag7
ag2208
ag7
ag7
ag7
ag2213
ag7
ag7
ag7
ag7
ag7
ag7
ag7
ag2222
ag7
ag7
ag7
ag2227
ag7
ag7
ag7
ag2232
ag7
ag2235
ag7
ag2238
ag7
ag7
ag7
ag2243
ag7
ag7
ag7
ag2130
aa(lp6472
g4
ag7
ag4216
ag7
ag4219
ag7
ag4222
ag7
ag4225
ag7
ag7
ag7
ag4230
ag7
ag7
ag7
ag7
ag7
ag4237
ag7
ag4240
ag7
ag4243
ag7
ag4246
ag7
ag2130
ag2130
ag2130
ag2130
ag2130
ag2130
ag2130
ag2130
ag2130
ag2130
ag2130
ag2130
ag2130
ag2130
ag2130
ag2130
ag2130
ag2130
ag2130
ag2130
ag2130
ag2130
ag2130
ag2130
ag2130
ag2130
ag2130
ag2130
ag2130
ag2130
ag2130
ag2130
ag2130
ag2130
ag2130
ag2130
ag2130
ag2130
ag2130
ag2130
ag2130
ag2130
ag2130
ag2130
ag2130
ag2130
ag2130
ag2130
ag2130
ag2130
ag2130
ag2130
ag2130
ag2130
ag2130
ag2130
ag2130
ag2130
ag2130
ag2130
ag2130
ag2130
ag2130
ag2130
ag2130
ag2130
ag2130
ag2130
ag2130
ag2130
ag2130
aas.